; ModuleID = './src/test_etc.cpp'
source_filename = "./src/test_etc.cpp"
target datalayout = "e-m:o-p270:32:32-p271:32:32-p272:64:64-i64:64-f80:128-n8:16:32:64-S128"
target triple = "x86_64-apple-macosx12.0.0"

%"class.std::__1::vector" = type { %"class.std::__1::__vector_base" }
%"class.std::__1::__vector_base" = type { i32*, i32*, %"class.std::__1::__compressed_pair" }
%"class.std::__1::__compressed_pair" = type { %"struct.std::__1::__compressed_pair_elem" }
%"struct.std::__1::__compressed_pair_elem" = type { i32* }
%"struct.std::__1::__default_init_tag" = type { i8 }
%"class.std::__1::__vector_base_common" = type { i8 }
%"struct.std::__1::__compressed_pair_elem.0" = type { i8 }
%"class.std::__1::allocator" = type { i8 }
%"struct.std::__1::__non_trivial_if" = type { i8 }
%"struct.std::__1::vector<int>::_ConstructTransaction" = type { %"class.std::__1::vector"*, i32*, i32* }
%"struct.std::__1::__split_buffer" = type { i32*, i32*, i32*, %"class.std::__1::__compressed_pair.1" }
%"class.std::__1::__compressed_pair.1" = type { %"struct.std::__1::__compressed_pair_elem", %"struct.std::__1::__compressed_pair_elem.2" }
%"struct.std::__1::__compressed_pair_elem.2" = type { %"class.std::__1::allocator"* }
%"struct.std::__1::__less" = type { i8 }
%"class.std::__1::__split_buffer_common" = type { i8 }
%"class.std::length_error" = type { %"class.std::logic_error" }
%"class.std::logic_error" = type { %"class.std::exception", %"class.std::__1::__libcpp_refstring" }
%"class.std::exception" = type { i32 (...)** }
%"class.std::__1::__libcpp_refstring" = type { i8* }
%"struct.std::__1::integral_constant" = type { i8 }

@.str = private unnamed_addr constant [68 x i8] c"allocator<T>::allocate(size_t n) 'n' exceeds maximum supported size\00", align 1
@_ZTISt12length_error = external constant i8*
@_ZTVSt12length_error = external unnamed_addr constant { [5 x i8*] }, align 8

; Function Attrs: mustprogress noinline norecurse optnone ssp uwtable
define i32 @main() #0 personality i8* bitcast (i32 (...)* @__gxx_personality_v0 to i8*) !dbg !1304 {
entry:
  %retval = alloca i32, align 4
  %n = alloca i32, align 4
  %a = alloca i32, align 4
  %v = alloca %"class.std::__1::vector", align 8
  %exn.slot = alloca i8*, align 8
  %ehselector.slot = alloca i32, align 4
  store i32 0, i32* %retval, align 4
  call void @llvm.dbg.declare(metadata i32* %n, metadata !1306, metadata !DIExpression()), !dbg !1307
  store i32 1, i32* %n, align 4, !dbg !1307
  call void @llvm.dbg.declare(metadata i32* %a, metadata !1308, metadata !DIExpression()), !dbg !1309
  %0 = load i32, i32* %n, align 4, !dbg !1310
  %cmp = icmp sgt i32 %0, 0, !dbg !1311
  %1 = zext i1 %cmp to i64, !dbg !1310
  %cond = select i1 %cmp, i32 1, i32 2, !dbg !1310
  store i32 %cond, i32* %a, align 4, !dbg !1312
  %2 = load i32, i32* %a, align 4, !dbg !1313
  %sub = sub nsw i32 0, %2, !dbg !1314
  store i32 %sub, i32* %a, align 4, !dbg !1315
  %3 = load i32, i32* %a, align 4, !dbg !1316
  %sub1 = sub nsw i32 0, %3, !dbg !1317
  call void @llvm.dbg.declare(metadata %"class.std::__1::vector"* %v, metadata !1318, metadata !DIExpression()), !dbg !1319
  call void @_ZNSt3__16vectorIiNS_9allocatorIiEEEC1Ev(%"class.std::__1::vector"* nonnull align 8 dereferenceable(24) %v) #14, !dbg !1319
  invoke void @_ZNSt3__16vectorIiNS_9allocatorIiEEE9push_backERKi(%"class.std::__1::vector"* nonnull align 8 dereferenceable(24) %v, i32* nonnull align 4 dereferenceable(4) %a)
          to label %invoke.cont unwind label %lpad, !dbg !1320

invoke.cont:                                      ; preds = %entry
  invoke void @_ZNSt3__16vectorIiNS_9allocatorIiEEE9push_backERKi(%"class.std::__1::vector"* nonnull align 8 dereferenceable(24) %v, i32* nonnull align 4 dereferenceable(4) %a)
          to label %invoke.cont2 unwind label %lpad, !dbg !1321

invoke.cont2:                                     ; preds = %invoke.cont
  %call = call nonnull align 4 dereferenceable(4) i32* @_ZNSt3__16vectorIiNS_9allocatorIiEEEixEm(%"class.std::__1::vector"* nonnull align 8 dereferenceable(24) %v, i64 0) #14, !dbg !1322
  store i32 3, i32* %call, align 4, !dbg !1323
  %call3 = call nonnull align 4 dereferenceable(4) i32* @_ZNSt3__16vectorIiNS_9allocatorIiEEEixEm(%"class.std::__1::vector"* nonnull align 8 dereferenceable(24) %v, i64 1) #14, !dbg !1324
  store i32 4, i32* %call3, align 4, !dbg !1325
  store i32 0, i32* %retval, align 4, !dbg !1326
  call void @_ZNSt3__16vectorIiNS_9allocatorIiEEED1Ev(%"class.std::__1::vector"* nonnull align 8 dereferenceable(24) %v) #14, !dbg !1327
  %4 = load i32, i32* %retval, align 4, !dbg !1327
  ret i32 %4, !dbg !1327

lpad:                                             ; preds = %invoke.cont, %entry
  %5 = landingpad { i8*, i32 }
          cleanup, !dbg !1327
  %6 = extractvalue { i8*, i32 } %5, 0, !dbg !1327
  store i8* %6, i8** %exn.slot, align 8, !dbg !1327
  %7 = extractvalue { i8*, i32 } %5, 1, !dbg !1327
  store i32 %7, i32* %ehselector.slot, align 4, !dbg !1327
  call void @_ZNSt3__16vectorIiNS_9allocatorIiEEED1Ev(%"class.std::__1::vector"* nonnull align 8 dereferenceable(24) %v) #14, !dbg !1327
  br label %eh.resume, !dbg !1327

eh.resume:                                        ; preds = %lpad
  %exn = load i8*, i8** %exn.slot, align 8, !dbg !1327
  %sel = load i32, i32* %ehselector.slot, align 4, !dbg !1327
  %lpad.val = insertvalue { i8*, i32 } undef, i8* %exn, 0, !dbg !1327
  %lpad.val4 = insertvalue { i8*, i32 } %lpad.val, i32 %sel, 1, !dbg !1327
  resume { i8*, i32 } %lpad.val4, !dbg !1327
}

; Function Attrs: nofree nosync nounwind readnone speculatable willreturn
declare void @llvm.dbg.declare(metadata, metadata, metadata) #1

; Function Attrs: noinline nounwind optnone ssp uwtable
define linkonce_odr hidden void @_ZNSt3__16vectorIiNS_9allocatorIiEEEC1Ev(%"class.std::__1::vector"* nonnull align 8 dereferenceable(24) %this) unnamed_addr #2 align 2 !dbg !1328 {
entry:
  %this.addr = alloca %"class.std::__1::vector"*, align 8
  store %"class.std::__1::vector"* %this, %"class.std::__1::vector"** %this.addr, align 8
  call void @llvm.dbg.declare(metadata %"class.std::__1::vector"** %this.addr, metadata !1329, metadata !DIExpression()), !dbg !1331
  %this1 = load %"class.std::__1::vector"*, %"class.std::__1::vector"** %this.addr, align 8
  call void @_ZNSt3__16vectorIiNS_9allocatorIiEEEC2Ev(%"class.std::__1::vector"* nonnull align 8 dereferenceable(24) %this1) #14, !dbg !1332
  ret void, !dbg !1333
}

; Function Attrs: mustprogress noinline optnone ssp uwtable
define linkonce_odr hidden void @_ZNSt3__16vectorIiNS_9allocatorIiEEE9push_backERKi(%"class.std::__1::vector"* nonnull align 8 dereferenceable(24) %this, i32* nonnull align 4 dereferenceable(4) %__x) #3 align 2 !dbg !1334 {
entry:
  %this.addr = alloca %"class.std::__1::vector"*, align 8
  %__x.addr = alloca i32*, align 8
  store %"class.std::__1::vector"* %this, %"class.std::__1::vector"** %this.addr, align 8
  call void @llvm.dbg.declare(metadata %"class.std::__1::vector"** %this.addr, metadata !1335, metadata !DIExpression()), !dbg !1336
  store i32* %__x, i32** %__x.addr, align 8
  call void @llvm.dbg.declare(metadata i32** %__x.addr, metadata !1337, metadata !DIExpression()), !dbg !1338
  %this1 = load %"class.std::__1::vector"*, %"class.std::__1::vector"** %this.addr, align 8
  %0 = bitcast %"class.std::__1::vector"* %this1 to %"class.std::__1::__vector_base"*, !dbg !1339
  %__end_ = getelementptr inbounds %"class.std::__1::__vector_base", %"class.std::__1::__vector_base"* %0, i32 0, i32 1, !dbg !1339
  %1 = load i32*, i32** %__end_, align 8, !dbg !1339
  %2 = bitcast %"class.std::__1::vector"* %this1 to %"class.std::__1::__vector_base"*, !dbg !1341
  %call = call nonnull align 8 dereferenceable(8) i32** @_ZNSt3__113__vector_baseIiNS_9allocatorIiEEE9__end_capEv(%"class.std::__1::__vector_base"* nonnull align 8 dereferenceable(24) %2) #14, !dbg !1341
  %3 = load i32*, i32** %call, align 8, !dbg !1341
  %cmp = icmp ne i32* %1, %3, !dbg !1342
  br i1 %cmp, label %if.then, label %if.else, !dbg !1343

if.then:                                          ; preds = %entry
  %4 = load i32*, i32** %__x.addr, align 8, !dbg !1344
  call void @_ZNSt3__16vectorIiNS_9allocatorIiEEE22__construct_one_at_endIJRKiEEEvDpOT_(%"class.std::__1::vector"* nonnull align 8 dereferenceable(24) %this1, i32* nonnull align 4 dereferenceable(4) %4), !dbg !1346
  br label %if.end, !dbg !1347

if.else:                                          ; preds = %entry
  %5 = load i32*, i32** %__x.addr, align 8, !dbg !1348
  call void @_ZNSt3__16vectorIiNS_9allocatorIiEEE21__push_back_slow_pathIRKiEEvOT_(%"class.std::__1::vector"* nonnull align 8 dereferenceable(24) %this1, i32* nonnull align 4 dereferenceable(4) %5), !dbg !1349
  br label %if.end

if.end:                                           ; preds = %if.else, %if.then
  ret void, !dbg !1350
}

declare i32 @__gxx_personality_v0(...)

; Function Attrs: mustprogress noinline nounwind optnone ssp uwtable
define linkonce_odr hidden nonnull align 4 dereferenceable(4) i32* @_ZNSt3__16vectorIiNS_9allocatorIiEEEixEm(%"class.std::__1::vector"* nonnull align 8 dereferenceable(24) %this, i64 %__n) #4 align 2 !dbg !1351 {
entry:
  %this.addr = alloca %"class.std::__1::vector"*, align 8
  %__n.addr = alloca i64, align 8
  store %"class.std::__1::vector"* %this, %"class.std::__1::vector"** %this.addr, align 8
  call void @llvm.dbg.declare(metadata %"class.std::__1::vector"** %this.addr, metadata !1352, metadata !DIExpression()), !dbg !1353
  store i64 %__n, i64* %__n.addr, align 8
  call void @llvm.dbg.declare(metadata i64* %__n.addr, metadata !1354, metadata !DIExpression()), !dbg !1355
  %this1 = load %"class.std::__1::vector"*, %"class.std::__1::vector"** %this.addr, align 8
  %0 = bitcast %"class.std::__1::vector"* %this1 to %"class.std::__1::__vector_base"*, !dbg !1356
  %__begin_ = getelementptr inbounds %"class.std::__1::__vector_base", %"class.std::__1::__vector_base"* %0, i32 0, i32 0, !dbg !1356
  %1 = load i32*, i32** %__begin_, align 8, !dbg !1356
  %2 = load i64, i64* %__n.addr, align 8, !dbg !1357
  %arrayidx = getelementptr inbounds i32, i32* %1, i64 %2, !dbg !1358
  ret i32* %arrayidx, !dbg !1359
}

; Function Attrs: noinline nounwind optnone ssp uwtable
define linkonce_odr hidden void @_ZNSt3__16vectorIiNS_9allocatorIiEEED1Ev(%"class.std::__1::vector"* nonnull align 8 dereferenceable(24) %this) unnamed_addr #2 align 2 !dbg !1360 {
entry:
  %this.addr = alloca %"class.std::__1::vector"*, align 8
  store %"class.std::__1::vector"* %this, %"class.std::__1::vector"** %this.addr, align 8
  call void @llvm.dbg.declare(metadata %"class.std::__1::vector"** %this.addr, metadata !1361, metadata !DIExpression()), !dbg !1362
  %this1 = load %"class.std::__1::vector"*, %"class.std::__1::vector"** %this.addr, align 8
  call void @_ZNSt3__16vectorIiNS_9allocatorIiEEED2Ev(%"class.std::__1::vector"* nonnull align 8 dereferenceable(24) %this1) #14, !dbg !1363
  ret void, !dbg !1364
}

; Function Attrs: noinline nounwind optnone ssp uwtable
define linkonce_odr hidden void @_ZNSt3__16vectorIiNS_9allocatorIiEEEC2Ev(%"class.std::__1::vector"* nonnull align 8 dereferenceable(24) %this) unnamed_addr #2 align 2 !dbg !1365 {
entry:
  %this.addr = alloca %"class.std::__1::vector"*, align 8
  store %"class.std::__1::vector"* %this, %"class.std::__1::vector"** %this.addr, align 8
  call void @llvm.dbg.declare(metadata %"class.std::__1::vector"** %this.addr, metadata !1366, metadata !DIExpression()), !dbg !1367
  %this1 = load %"class.std::__1::vector"*, %"class.std::__1::vector"** %this.addr, align 8
  %0 = bitcast %"class.std::__1::vector"* %this1 to %"class.std::__1::__vector_base"*, !dbg !1368
  call void @_ZNSt3__113__vector_baseIiNS_9allocatorIiEEEC2Ev(%"class.std::__1::__vector_base"* nonnull align 8 dereferenceable(24) %0) #14, !dbg !1369
  ret void, !dbg !1370
}

; Function Attrs: noinline nounwind optnone ssp uwtable
define linkonce_odr hidden void @_ZNSt3__113__vector_baseIiNS_9allocatorIiEEEC2Ev(%"class.std::__1::__vector_base"* nonnull align 8 dereferenceable(24) %this) unnamed_addr #2 align 2 personality i8* bitcast (i32 (...)* @__gxx_personality_v0 to i8*) !dbg !1371 {
entry:
  %this.addr = alloca %"class.std::__1::__vector_base"*, align 8
  %ref.tmp = alloca i8*, align 8
  %ref.tmp2 = alloca %"struct.std::__1::__default_init_tag", align 1
  store %"class.std::__1::__vector_base"* %this, %"class.std::__1::__vector_base"** %this.addr, align 8
  call void @llvm.dbg.declare(metadata %"class.std::__1::__vector_base"** %this.addr, metadata !1372, metadata !DIExpression()), !dbg !1374
  %this1 = load %"class.std::__1::__vector_base"*, %"class.std::__1::__vector_base"** %this.addr, align 8
  %0 = bitcast %"class.std::__1::__vector_base"* %this1 to %"class.std::__1::__vector_base_common"*, !dbg !1375
  invoke void @_ZNSt3__120__vector_base_commonILb1EEC2Ev(%"class.std::__1::__vector_base_common"* nonnull align 1 dereferenceable(1) %0)
          to label %invoke.cont unwind label %terminate.lpad, !dbg !1376

invoke.cont:                                      ; preds = %entry
  %__begin_ = getelementptr inbounds %"class.std::__1::__vector_base", %"class.std::__1::__vector_base"* %this1, i32 0, i32 0, !dbg !1377
  store i32* null, i32** %__begin_, align 8, !dbg !1377
  %__end_ = getelementptr inbounds %"class.std::__1::__vector_base", %"class.std::__1::__vector_base"* %this1, i32 0, i32 1, !dbg !1378
  store i32* null, i32** %__end_, align 8, !dbg !1378
  %__end_cap_ = getelementptr inbounds %"class.std::__1::__vector_base", %"class.std::__1::__vector_base"* %this1, i32 0, i32 2, !dbg !1379
  store i8* null, i8** %ref.tmp, align 8, !dbg !1380
  invoke void @_ZNSt3__117__compressed_pairIPiNS_9allocatorIiEEEC1IDnNS_18__default_init_tagEEEOT_OT0_(%"class.std::__1::__compressed_pair"* nonnull align 8 dereferenceable(8) %__end_cap_, i8** nonnull align 8 dereferenceable(8) %ref.tmp, %"struct.std::__1::__default_init_tag"* nonnull align 1 dereferenceable(1) %ref.tmp2)
          to label %invoke.cont3 unwind label %terminate.lpad, !dbg !1379

invoke.cont3:                                     ; preds = %invoke.cont
  ret void, !dbg !1381

terminate.lpad:                                   ; preds = %invoke.cont, %entry
  %1 = landingpad { i8*, i32 }
          catch i8* null, !dbg !1376
  %2 = extractvalue { i8*, i32 } %1, 0, !dbg !1376
  call void @__clang_call_terminate(i8* %2) #15, !dbg !1376
  unreachable, !dbg !1376
}

; Function Attrs: noinline nounwind optnone ssp uwtable
define linkonce_odr hidden void @_ZNSt3__120__vector_base_commonILb1EEC2Ev(%"class.std::__1::__vector_base_common"* nonnull align 1 dereferenceable(1) %this) unnamed_addr #2 align 2 !dbg !1382 {
entry:
  %this.addr = alloca %"class.std::__1::__vector_base_common"*, align 8
  store %"class.std::__1::__vector_base_common"* %this, %"class.std::__1::__vector_base_common"** %this.addr, align 8
  call void @llvm.dbg.declare(metadata %"class.std::__1::__vector_base_common"** %this.addr, metadata !1383, metadata !DIExpression()), !dbg !1385
  %this1 = load %"class.std::__1::__vector_base_common"*, %"class.std::__1::__vector_base_common"** %this.addr, align 8
  ret void, !dbg !1386
}

; Function Attrs: noinline noreturn nounwind
define linkonce_odr hidden void @__clang_call_terminate(i8* %0) #5 {
  %2 = call i8* @__cxa_begin_catch(i8* %0) #14
  call void @_ZSt9terminatev() #15
  unreachable
}

declare i8* @__cxa_begin_catch(i8*)

declare void @_ZSt9terminatev()

; Function Attrs: noinline optnone ssp uwtable
define linkonce_odr void @_ZNSt3__117__compressed_pairIPiNS_9allocatorIiEEEC1IDnNS_18__default_init_tagEEEOT_OT0_(%"class.std::__1::__compressed_pair"* nonnull align 8 dereferenceable(8) %this, i8** nonnull align 8 dereferenceable(8) %__t1, %"struct.std::__1::__default_init_tag"* nonnull align 1 dereferenceable(1) %__t2) unnamed_addr #6 align 2 !dbg !1387 {
entry:
  %this.addr = alloca %"class.std::__1::__compressed_pair"*, align 8
  %__t1.addr = alloca i8**, align 8
  %__t2.addr = alloca %"struct.std::__1::__default_init_tag"*, align 8
  store %"class.std::__1::__compressed_pair"* %this, %"class.std::__1::__compressed_pair"** %this.addr, align 8
  call void @llvm.dbg.declare(metadata %"class.std::__1::__compressed_pair"** %this.addr, metadata !1396, metadata !DIExpression()), !dbg !1397
  store i8** %__t1, i8*** %__t1.addr, align 8
  call void @llvm.dbg.declare(metadata i8*** %__t1.addr, metadata !1398, metadata !DIExpression()), !dbg !1399
  store %"struct.std::__1::__default_init_tag"* %__t2, %"struct.std::__1::__default_init_tag"** %__t2.addr, align 8
  call void @llvm.dbg.declare(metadata %"struct.std::__1::__default_init_tag"** %__t2.addr, metadata !1400, metadata !DIExpression()), !dbg !1401
  %this1 = load %"class.std::__1::__compressed_pair"*, %"class.std::__1::__compressed_pair"** %this.addr, align 8
  %0 = load i8**, i8*** %__t1.addr, align 8, !dbg !1402
  %1 = load %"struct.std::__1::__default_init_tag"*, %"struct.std::__1::__default_init_tag"** %__t2.addr, align 8, !dbg !1402
  call void @_ZNSt3__117__compressed_pairIPiNS_9allocatorIiEEEC2IDnNS_18__default_init_tagEEEOT_OT0_(%"class.std::__1::__compressed_pair"* nonnull align 8 dereferenceable(8) %this1, i8** nonnull align 8 dereferenceable(8) %0, %"struct.std::__1::__default_init_tag"* nonnull align 1 dereferenceable(1) %1), !dbg !1402
  ret void, !dbg !1403
}

; Function Attrs: noinline optnone ssp uwtable
define linkonce_odr void @_ZNSt3__117__compressed_pairIPiNS_9allocatorIiEEEC2IDnNS_18__default_init_tagEEEOT_OT0_(%"class.std::__1::__compressed_pair"* nonnull align 8 dereferenceable(8) %this, i8** nonnull align 8 dereferenceable(8) %__t1, %"struct.std::__1::__default_init_tag"* nonnull align 1 dereferenceable(1) %__t2) unnamed_addr #6 align 2 !dbg !1404 {
entry:
  %this.addr = alloca %"class.std::__1::__compressed_pair"*, align 8
  %__t1.addr = alloca i8**, align 8
  %__t2.addr = alloca %"struct.std::__1::__default_init_tag"*, align 8
  %agg.tmp = alloca %"struct.std::__1::__default_init_tag", align 1
  store %"class.std::__1::__compressed_pair"* %this, %"class.std::__1::__compressed_pair"** %this.addr, align 8
  call void @llvm.dbg.declare(metadata %"class.std::__1::__compressed_pair"** %this.addr, metadata !1405, metadata !DIExpression()), !dbg !1406
  store i8** %__t1, i8*** %__t1.addr, align 8
  call void @llvm.dbg.declare(metadata i8*** %__t1.addr, metadata !1407, metadata !DIExpression()), !dbg !1408
  store %"struct.std::__1::__default_init_tag"* %__t2, %"struct.std::__1::__default_init_tag"** %__t2.addr, align 8
  call void @llvm.dbg.declare(metadata %"struct.std::__1::__default_init_tag"** %__t2.addr, metadata !1409, metadata !DIExpression()), !dbg !1410
  %this1 = load %"class.std::__1::__compressed_pair"*, %"class.std::__1::__compressed_pair"** %this.addr, align 8
  %0 = bitcast %"class.std::__1::__compressed_pair"* %this1 to %"struct.std::__1::__compressed_pair_elem"*, !dbg !1411
  %1 = load i8**, i8*** %__t1.addr, align 8, !dbg !1412
  %call = call nonnull align 8 dereferenceable(8) i8** @_ZNSt3__17forwardIDnEEOT_RNS_16remove_referenceIS1_E4typeE(i8** nonnull align 8 dereferenceable(8) %1) #14, !dbg !1413
  call void @_ZNSt3__122__compressed_pair_elemIPiLi0ELb0EEC2IDnvEEOT_(%"struct.std::__1::__compressed_pair_elem"* nonnull align 8 dereferenceable(8) %0, i8** nonnull align 8 dereferenceable(8) %call), !dbg !1414
  %2 = bitcast %"class.std::__1::__compressed_pair"* %this1 to %"struct.std::__1::__compressed_pair_elem.0"*, !dbg !1411
  %3 = load %"struct.std::__1::__default_init_tag"*, %"struct.std::__1::__default_init_tag"** %__t2.addr, align 8, !dbg !1415
  %call2 = call nonnull align 1 dereferenceable(1) %"struct.std::__1::__default_init_tag"* @_ZNSt3__17forwardINS_18__default_init_tagEEEOT_RNS_16remove_referenceIS2_E4typeE(%"struct.std::__1::__default_init_tag"* nonnull align 1 dereferenceable(1) %3) #14, !dbg !1416
  call void @_ZNSt3__122__compressed_pair_elemINS_9allocatorIiEELi1ELb1EEC2ENS_18__default_init_tagE(%"struct.std::__1::__compressed_pair_elem.0"* nonnull align 1 dereferenceable(1) %2), !dbg !1417
  ret void, !dbg !1418
}

; Function Attrs: mustprogress noinline nounwind optnone ssp uwtable
define linkonce_odr hidden nonnull align 8 dereferenceable(8) i8** @_ZNSt3__17forwardIDnEEOT_RNS_16remove_referenceIS1_E4typeE(i8** nonnull align 8 dereferenceable(8) %__t) #4 !dbg !1419 {
entry:
  %__t.addr = alloca i8**, align 8
  store i8** %__t, i8*** %__t.addr, align 8
  call void @llvm.dbg.declare(metadata i8*** %__t.addr, metadata !1426, metadata !DIExpression()), !dbg !1427
  %0 = load i8**, i8*** %__t.addr, align 8, !dbg !1428
  ret i8** %0, !dbg !1429
}

; Function Attrs: noinline nounwind optnone ssp uwtable
define linkonce_odr void @_ZNSt3__122__compressed_pair_elemIPiLi0ELb0EEC2IDnvEEOT_(%"struct.std::__1::__compressed_pair_elem"* nonnull align 8 dereferenceable(8) %this, i8** nonnull align 8 dereferenceable(8) %__u) unnamed_addr #2 align 2 !dbg !1430 {
entry:
  %this.addr = alloca %"struct.std::__1::__compressed_pair_elem"*, align 8
  %__u.addr = alloca i8**, align 8
  store %"struct.std::__1::__compressed_pair_elem"* %this, %"struct.std::__1::__compressed_pair_elem"** %this.addr, align 8
  call void @llvm.dbg.declare(metadata %"struct.std::__1::__compressed_pair_elem"** %this.addr, metadata !1437, metadata !DIExpression()), !dbg !1438
  store i8** %__u, i8*** %__u.addr, align 8
  call void @llvm.dbg.declare(metadata i8*** %__u.addr, metadata !1439, metadata !DIExpression()), !dbg !1440
  %this1 = load %"struct.std::__1::__compressed_pair_elem"*, %"struct.std::__1::__compressed_pair_elem"** %this.addr, align 8
  %__value_ = getelementptr inbounds %"struct.std::__1::__compressed_pair_elem", %"struct.std::__1::__compressed_pair_elem"* %this1, i32 0, i32 0, !dbg !1441
  %0 = load i8**, i8*** %__u.addr, align 8, !dbg !1442
  %call = call nonnull align 8 dereferenceable(8) i8** @_ZNSt3__17forwardIDnEEOT_RNS_16remove_referenceIS1_E4typeE(i8** nonnull align 8 dereferenceable(8) %0) #14, !dbg !1443
  store i32* null, i32** %__value_, align 8, !dbg !1441
  ret void, !dbg !1444
}

; Function Attrs: mustprogress noinline nounwind optnone ssp uwtable
define linkonce_odr hidden nonnull align 1 dereferenceable(1) %"struct.std::__1::__default_init_tag"* @_ZNSt3__17forwardINS_18__default_init_tagEEEOT_RNS_16remove_referenceIS2_E4typeE(%"struct.std::__1::__default_init_tag"* nonnull align 1 dereferenceable(1) %__t) #4 !dbg !1445 {
entry:
  %__t.addr = alloca %"struct.std::__1::__default_init_tag"*, align 8
  store %"struct.std::__1::__default_init_tag"* %__t, %"struct.std::__1::__default_init_tag"** %__t.addr, align 8
  call void @llvm.dbg.declare(metadata %"struct.std::__1::__default_init_tag"** %__t.addr, metadata !1451, metadata !DIExpression()), !dbg !1452
  %0 = load %"struct.std::__1::__default_init_tag"*, %"struct.std::__1::__default_init_tag"** %__t.addr, align 8, !dbg !1453
  ret %"struct.std::__1::__default_init_tag"* %0, !dbg !1454
}

; Function Attrs: noinline nounwind optnone ssp uwtable
define linkonce_odr hidden void @_ZNSt3__122__compressed_pair_elemINS_9allocatorIiEELi1ELb1EEC2ENS_18__default_init_tagE(%"struct.std::__1::__compressed_pair_elem.0"* nonnull align 1 dereferenceable(1) %this) unnamed_addr #2 align 2 !dbg !1455 {
entry:
  %0 = alloca %"struct.std::__1::__default_init_tag", align 1
  %this.addr = alloca %"struct.std::__1::__compressed_pair_elem.0"*, align 8
  store %"struct.std::__1::__compressed_pair_elem.0"* %this, %"struct.std::__1::__compressed_pair_elem.0"** %this.addr, align 8
  call void @llvm.dbg.declare(metadata %"struct.std::__1::__compressed_pair_elem.0"** %this.addr, metadata !1456, metadata !DIExpression()), !dbg !1457
  call void @llvm.dbg.declare(metadata %"struct.std::__1::__default_init_tag"* %0, metadata !1458, metadata !DIExpression()), !dbg !1459
  %this1 = load %"struct.std::__1::__compressed_pair_elem.0"*, %"struct.std::__1::__compressed_pair_elem.0"** %this.addr, align 8
  %1 = bitcast %"struct.std::__1::__compressed_pair_elem.0"* %this1 to %"class.std::__1::allocator"*, !dbg !1460
  call void @_ZNSt3__19allocatorIiEC2Ev(%"class.std::__1::allocator"* nonnull align 1 dereferenceable(1) %1) #14, !dbg !1461
  ret void, !dbg !1462
}

; Function Attrs: noinline nounwind optnone ssp uwtable
define linkonce_odr hidden void @_ZNSt3__19allocatorIiEC2Ev(%"class.std::__1::allocator"* nonnull align 1 dereferenceable(1) %this) unnamed_addr #2 align 2 !dbg !1463 {
entry:
  %this.addr = alloca %"class.std::__1::allocator"*, align 8
  store %"class.std::__1::allocator"* %this, %"class.std::__1::allocator"** %this.addr, align 8
  call void @llvm.dbg.declare(metadata %"class.std::__1::allocator"** %this.addr, metadata !1464, metadata !DIExpression()), !dbg !1466
  %this1 = load %"class.std::__1::allocator"*, %"class.std::__1::allocator"** %this.addr, align 8
  %0 = bitcast %"class.std::__1::allocator"* %this1 to %"struct.std::__1::__non_trivial_if"*, !dbg !1467
  call void @_ZNSt3__116__non_trivial_ifILb1ENS_9allocatorIiEEEC2Ev(%"struct.std::__1::__non_trivial_if"* nonnull align 1 dereferenceable(1) %0) #14, !dbg !1468
  ret void, !dbg !1467
}

; Function Attrs: noinline nounwind optnone ssp uwtable
define linkonce_odr hidden void @_ZNSt3__116__non_trivial_ifILb1ENS_9allocatorIiEEEC2Ev(%"struct.std::__1::__non_trivial_if"* nonnull align 1 dereferenceable(1) %this) unnamed_addr #2 align 2 !dbg !1469 {
entry:
  %this.addr = alloca %"struct.std::__1::__non_trivial_if"*, align 8
  store %"struct.std::__1::__non_trivial_if"* %this, %"struct.std::__1::__non_trivial_if"** %this.addr, align 8
  call void @llvm.dbg.declare(metadata %"struct.std::__1::__non_trivial_if"** %this.addr, metadata !1470, metadata !DIExpression()), !dbg !1472
  %this1 = load %"struct.std::__1::__non_trivial_if"*, %"struct.std::__1::__non_trivial_if"** %this.addr, align 8
  ret void, !dbg !1473
}

; Function Attrs: noinline nounwind optnone ssp uwtable
define linkonce_odr hidden void @_ZNSt3__16vectorIiNS_9allocatorIiEEED2Ev(%"class.std::__1::vector"* nonnull align 8 dereferenceable(24) %this) unnamed_addr #2 align 2 !dbg !1474 {
entry:
  %this.addr = alloca %"class.std::__1::vector"*, align 8
  store %"class.std::__1::vector"* %this, %"class.std::__1::vector"** %this.addr, align 8
  call void @llvm.dbg.declare(metadata %"class.std::__1::vector"** %this.addr, metadata !1475, metadata !DIExpression()), !dbg !1476
  %this1 = load %"class.std::__1::vector"*, %"class.std::__1::vector"** %this.addr, align 8
  call void @_ZNKSt3__16vectorIiNS_9allocatorIiEEE17__annotate_deleteEv(%"class.std::__1::vector"* nonnull align 8 dereferenceable(24) %this1) #14, !dbg !1477
  %0 = bitcast %"class.std::__1::vector"* %this1 to %"class.std::__1::__vector_base"*, !dbg !1479
  call void @_ZNSt3__113__vector_baseIiNS_9allocatorIiEEED2Ev(%"class.std::__1::__vector_base"* nonnull align 8 dereferenceable(24) %0) #14, !dbg !1479
  ret void, !dbg !1480
}

; Function Attrs: mustprogress noinline nounwind optnone ssp uwtable
define linkonce_odr hidden void @_ZNKSt3__16vectorIiNS_9allocatorIiEEE17__annotate_deleteEv(%"class.std::__1::vector"* nonnull align 8 dereferenceable(24) %this) #4 align 2 !dbg !1481 {
entry:
  %this.addr = alloca %"class.std::__1::vector"*, align 8
  store %"class.std::__1::vector"* %this, %"class.std::__1::vector"** %this.addr, align 8
  call void @llvm.dbg.declare(metadata %"class.std::__1::vector"** %this.addr, metadata !1482, metadata !DIExpression()), !dbg !1484
  %this1 = load %"class.std::__1::vector"*, %"class.std::__1::vector"** %this.addr, align 8
  %call = call i32* @_ZNKSt3__16vectorIiNS_9allocatorIiEEE4dataEv(%"class.std::__1::vector"* nonnull align 8 dereferenceable(24) %this1) #14, !dbg !1485
  %0 = bitcast i32* %call to i8*, !dbg !1485
  %call2 = call i32* @_ZNKSt3__16vectorIiNS_9allocatorIiEEE4dataEv(%"class.std::__1::vector"* nonnull align 8 dereferenceable(24) %this1) #14, !dbg !1486
  %call3 = call i64 @_ZNKSt3__16vectorIiNS_9allocatorIiEEE8capacityEv(%"class.std::__1::vector"* nonnull align 8 dereferenceable(24) %this1) #14, !dbg !1487
  %add.ptr = getelementptr inbounds i32, i32* %call2, i64 %call3, !dbg !1488
  %1 = bitcast i32* %add.ptr to i8*, !dbg !1486
  %call4 = call i32* @_ZNKSt3__16vectorIiNS_9allocatorIiEEE4dataEv(%"class.std::__1::vector"* nonnull align 8 dereferenceable(24) %this1) #14, !dbg !1489
  %call5 = call i64 @_ZNKSt3__16vectorIiNS_9allocatorIiEEE4sizeEv(%"class.std::__1::vector"* nonnull align 8 dereferenceable(24) %this1) #14, !dbg !1490
  %add.ptr6 = getelementptr inbounds i32, i32* %call4, i64 %call5, !dbg !1491
  %2 = bitcast i32* %add.ptr6 to i8*, !dbg !1489
  %call7 = call i32* @_ZNKSt3__16vectorIiNS_9allocatorIiEEE4dataEv(%"class.std::__1::vector"* nonnull align 8 dereferenceable(24) %this1) #14, !dbg !1492
  %call8 = call i64 @_ZNKSt3__16vectorIiNS_9allocatorIiEEE8capacityEv(%"class.std::__1::vector"* nonnull align 8 dereferenceable(24) %this1) #14, !dbg !1493
  %add.ptr9 = getelementptr inbounds i32, i32* %call7, i64 %call8, !dbg !1494
  %3 = bitcast i32* %add.ptr9 to i8*, !dbg !1492
  call void @_ZNKSt3__16vectorIiNS_9allocatorIiEEE31__annotate_contiguous_containerEPKvS5_S5_S5_(%"class.std::__1::vector"* nonnull align 8 dereferenceable(24) %this1, i8* %0, i8* %1, i8* %2, i8* %3) #14, !dbg !1495
  ret void, !dbg !1496
}

; Function Attrs: noinline nounwind optnone ssp uwtable
define linkonce_odr void @_ZNSt3__113__vector_baseIiNS_9allocatorIiEEED2Ev(%"class.std::__1::__vector_base"* nonnull align 8 dereferenceable(24) %this) unnamed_addr #2 align 2 !dbg !1497 {
entry:
  %this.addr = alloca %"class.std::__1::__vector_base"*, align 8
  store %"class.std::__1::__vector_base"* %this, %"class.std::__1::__vector_base"** %this.addr, align 8
  call void @llvm.dbg.declare(metadata %"class.std::__1::__vector_base"** %this.addr, metadata !1498, metadata !DIExpression()), !dbg !1499
  %this1 = load %"class.std::__1::__vector_base"*, %"class.std::__1::__vector_base"** %this.addr, align 8
  %__begin_ = getelementptr inbounds %"class.std::__1::__vector_base", %"class.std::__1::__vector_base"* %this1, i32 0, i32 0, !dbg !1500
  %0 = load i32*, i32** %__begin_, align 8, !dbg !1500
  %cmp = icmp ne i32* %0, null, !dbg !1503
  br i1 %cmp, label %if.then, label %if.end, !dbg !1504

if.then:                                          ; preds = %entry
  call void @_ZNSt3__113__vector_baseIiNS_9allocatorIiEEE5clearEv(%"class.std::__1::__vector_base"* nonnull align 8 dereferenceable(24) %this1) #14, !dbg !1505
  %call = call nonnull align 1 dereferenceable(1) %"class.std::__1::allocator"* @_ZNSt3__113__vector_baseIiNS_9allocatorIiEEE7__allocEv(%"class.std::__1::__vector_base"* nonnull align 8 dereferenceable(24) %this1) #14, !dbg !1507
  %__begin_2 = getelementptr inbounds %"class.std::__1::__vector_base", %"class.std::__1::__vector_base"* %this1, i32 0, i32 0, !dbg !1508
  %1 = load i32*, i32** %__begin_2, align 8, !dbg !1508
  %call3 = call i64 @_ZNKSt3__113__vector_baseIiNS_9allocatorIiEEE8capacityEv(%"class.std::__1::__vector_base"* nonnull align 8 dereferenceable(24) %this1) #14, !dbg !1509
  call void @_ZNSt3__116allocator_traitsINS_9allocatorIiEEE10deallocateERS2_Pim(%"class.std::__1::allocator"* nonnull align 1 dereferenceable(1) %call, i32* %1, i64 %call3) #14, !dbg !1510
  br label %if.end, !dbg !1511

if.end:                                           ; preds = %if.then, %entry
  ret void, !dbg !1512
}

; Function Attrs: mustprogress noinline nounwind optnone ssp uwtable
define linkonce_odr hidden void @_ZNKSt3__16vectorIiNS_9allocatorIiEEE31__annotate_contiguous_containerEPKvS5_S5_S5_(%"class.std::__1::vector"* nonnull align 8 dereferenceable(24) %this, i8* %0, i8* %1, i8* %2, i8* %3) #4 align 2 !dbg !1513 {
entry:
  %this.addr = alloca %"class.std::__1::vector"*, align 8
  %.addr = alloca i8*, align 8
  %.addr1 = alloca i8*, align 8
  %.addr2 = alloca i8*, align 8
  %.addr3 = alloca i8*, align 8
  store %"class.std::__1::vector"* %this, %"class.std::__1::vector"** %this.addr, align 8
  call void @llvm.dbg.declare(metadata %"class.std::__1::vector"** %this.addr, metadata !1514, metadata !DIExpression()), !dbg !1515
  store i8* %0, i8** %.addr, align 8
  call void @llvm.dbg.declare(metadata i8** %.addr, metadata !1516, metadata !DIExpression()), !dbg !1517
  store i8* %1, i8** %.addr1, align 8
  call void @llvm.dbg.declare(metadata i8** %.addr1, metadata !1518, metadata !DIExpression()), !dbg !1519
  store i8* %2, i8** %.addr2, align 8
  call void @llvm.dbg.declare(metadata i8** %.addr2, metadata !1520, metadata !DIExpression()), !dbg !1521
  store i8* %3, i8** %.addr3, align 8
  call void @llvm.dbg.declare(metadata i8** %.addr3, metadata !1522, metadata !DIExpression()), !dbg !1523
  %this4 = load %"class.std::__1::vector"*, %"class.std::__1::vector"** %this.addr, align 8
  ret void, !dbg !1524
}

; Function Attrs: mustprogress noinline nounwind optnone ssp uwtable
define linkonce_odr hidden i32* @_ZNKSt3__16vectorIiNS_9allocatorIiEEE4dataEv(%"class.std::__1::vector"* nonnull align 8 dereferenceable(24) %this) #4 align 2 !dbg !1525 {
entry:
  %this.addr = alloca %"class.std::__1::vector"*, align 8
  store %"class.std::__1::vector"* %this, %"class.std::__1::vector"** %this.addr, align 8
  call void @llvm.dbg.declare(metadata %"class.std::__1::vector"** %this.addr, metadata !1526, metadata !DIExpression()), !dbg !1527
  %this1 = load %"class.std::__1::vector"*, %"class.std::__1::vector"** %this.addr, align 8
  %0 = bitcast %"class.std::__1::vector"* %this1 to %"class.std::__1::__vector_base"*, !dbg !1528
  %__begin_ = getelementptr inbounds %"class.std::__1::__vector_base", %"class.std::__1::__vector_base"* %0, i32 0, i32 0, !dbg !1528
  %1 = load i32*, i32** %__begin_, align 8, !dbg !1528
  %call = call i32* @_ZNSt3__112__to_addressIiEEPT_S2_(i32* %1) #14, !dbg !1529
  ret i32* %call, !dbg !1530
}

; Function Attrs: mustprogress noinline nounwind optnone ssp uwtable
define linkonce_odr hidden i64 @_ZNKSt3__16vectorIiNS_9allocatorIiEEE8capacityEv(%"class.std::__1::vector"* nonnull align 8 dereferenceable(24) %this) #4 align 2 !dbg !1531 {
entry:
  %this.addr = alloca %"class.std::__1::vector"*, align 8
  store %"class.std::__1::vector"* %this, %"class.std::__1::vector"** %this.addr, align 8
  call void @llvm.dbg.declare(metadata %"class.std::__1::vector"** %this.addr, metadata !1532, metadata !DIExpression()), !dbg !1533
  %this1 = load %"class.std::__1::vector"*, %"class.std::__1::vector"** %this.addr, align 8
  %0 = bitcast %"class.std::__1::vector"* %this1 to %"class.std::__1::__vector_base"*, !dbg !1534
  %call = call i64 @_ZNKSt3__113__vector_baseIiNS_9allocatorIiEEE8capacityEv(%"class.std::__1::__vector_base"* nonnull align 8 dereferenceable(24) %0) #14, !dbg !1534
  ret i64 %call, !dbg !1535
}

; Function Attrs: mustprogress noinline nounwind optnone ssp uwtable
define linkonce_odr hidden i64 @_ZNKSt3__16vectorIiNS_9allocatorIiEEE4sizeEv(%"class.std::__1::vector"* nonnull align 8 dereferenceable(24) %this) #4 align 2 !dbg !1536 {
entry:
  %this.addr = alloca %"class.std::__1::vector"*, align 8
  store %"class.std::__1::vector"* %this, %"class.std::__1::vector"** %this.addr, align 8
  call void @llvm.dbg.declare(metadata %"class.std::__1::vector"** %this.addr, metadata !1537, metadata !DIExpression()), !dbg !1538
  %this1 = load %"class.std::__1::vector"*, %"class.std::__1::vector"** %this.addr, align 8
  %0 = bitcast %"class.std::__1::vector"* %this1 to %"class.std::__1::__vector_base"*, !dbg !1539
  %__end_ = getelementptr inbounds %"class.std::__1::__vector_base", %"class.std::__1::__vector_base"* %0, i32 0, i32 1, !dbg !1539
  %1 = load i32*, i32** %__end_, align 8, !dbg !1539
  %2 = bitcast %"class.std::__1::vector"* %this1 to %"class.std::__1::__vector_base"*, !dbg !1540
  %__begin_ = getelementptr inbounds %"class.std::__1::__vector_base", %"class.std::__1::__vector_base"* %2, i32 0, i32 0, !dbg !1540
  %3 = load i32*, i32** %__begin_, align 8, !dbg !1540
  %sub.ptr.lhs.cast = ptrtoint i32* %1 to i64, !dbg !1541
  %sub.ptr.rhs.cast = ptrtoint i32* %3 to i64, !dbg !1541
  %sub.ptr.sub = sub i64 %sub.ptr.lhs.cast, %sub.ptr.rhs.cast, !dbg !1541
  %sub.ptr.div = sdiv exact i64 %sub.ptr.sub, 4, !dbg !1541
  ret i64 %sub.ptr.div, !dbg !1542
}

; Function Attrs: mustprogress noinline nounwind optnone ssp uwtable
define linkonce_odr hidden i32* @_ZNSt3__112__to_addressIiEEPT_S2_(i32* %__p) #4 !dbg !1543 {
entry:
  %__p.addr = alloca i32*, align 8
  store i32* %__p, i32** %__p.addr, align 8
  call void @llvm.dbg.declare(metadata i32** %__p.addr, metadata !1547, metadata !DIExpression()), !dbg !1548
  %0 = load i32*, i32** %__p.addr, align 8, !dbg !1549
  ret i32* %0, !dbg !1550
}

; Function Attrs: mustprogress noinline nounwind optnone ssp uwtable
define linkonce_odr hidden i64 @_ZNKSt3__113__vector_baseIiNS_9allocatorIiEEE8capacityEv(%"class.std::__1::__vector_base"* nonnull align 8 dereferenceable(24) %this) #4 align 2 !dbg !1551 {
entry:
  %this.addr = alloca %"class.std::__1::__vector_base"*, align 8
  store %"class.std::__1::__vector_base"* %this, %"class.std::__1::__vector_base"** %this.addr, align 8
  call void @llvm.dbg.declare(metadata %"class.std::__1::__vector_base"** %this.addr, metadata !1552, metadata !DIExpression()), !dbg !1554
  %this1 = load %"class.std::__1::__vector_base"*, %"class.std::__1::__vector_base"** %this.addr, align 8
  %call = call nonnull align 8 dereferenceable(8) i32** @_ZNKSt3__113__vector_baseIiNS_9allocatorIiEEE9__end_capEv(%"class.std::__1::__vector_base"* nonnull align 8 dereferenceable(24) %this1) #14, !dbg !1555
  %0 = load i32*, i32** %call, align 8, !dbg !1555
  %__begin_ = getelementptr inbounds %"class.std::__1::__vector_base", %"class.std::__1::__vector_base"* %this1, i32 0, i32 0, !dbg !1556
  %1 = load i32*, i32** %__begin_, align 8, !dbg !1556
  %sub.ptr.lhs.cast = ptrtoint i32* %0 to i64, !dbg !1557
  %sub.ptr.rhs.cast = ptrtoint i32* %1 to i64, !dbg !1557
  %sub.ptr.sub = sub i64 %sub.ptr.lhs.cast, %sub.ptr.rhs.cast, !dbg !1557
  %sub.ptr.div = sdiv exact i64 %sub.ptr.sub, 4, !dbg !1557
  ret i64 %sub.ptr.div, !dbg !1558
}

; Function Attrs: mustprogress noinline nounwind optnone ssp uwtable
define linkonce_odr hidden nonnull align 8 dereferenceable(8) i32** @_ZNKSt3__113__vector_baseIiNS_9allocatorIiEEE9__end_capEv(%"class.std::__1::__vector_base"* nonnull align 8 dereferenceable(24) %this) #4 align 2 !dbg !1559 {
entry:
  %this.addr = alloca %"class.std::__1::__vector_base"*, align 8
  store %"class.std::__1::__vector_base"* %this, %"class.std::__1::__vector_base"** %this.addr, align 8
  call void @llvm.dbg.declare(metadata %"class.std::__1::__vector_base"** %this.addr, metadata !1560, metadata !DIExpression()), !dbg !1561
  %this1 = load %"class.std::__1::__vector_base"*, %"class.std::__1::__vector_base"** %this.addr, align 8
  %__end_cap_ = getelementptr inbounds %"class.std::__1::__vector_base", %"class.std::__1::__vector_base"* %this1, i32 0, i32 2, !dbg !1562
  %call = call nonnull align 8 dereferenceable(8) i32** @_ZNKSt3__117__compressed_pairIPiNS_9allocatorIiEEE5firstEv(%"class.std::__1::__compressed_pair"* nonnull align 8 dereferenceable(8) %__end_cap_) #14, !dbg !1563
  ret i32** %call, !dbg !1564
}

; Function Attrs: mustprogress noinline nounwind optnone ssp uwtable
define linkonce_odr hidden nonnull align 8 dereferenceable(8) i32** @_ZNKSt3__117__compressed_pairIPiNS_9allocatorIiEEE5firstEv(%"class.std::__1::__compressed_pair"* nonnull align 8 dereferenceable(8) %this) #4 align 2 !dbg !1565 {
entry:
  %this.addr = alloca %"class.std::__1::__compressed_pair"*, align 8
  store %"class.std::__1::__compressed_pair"* %this, %"class.std::__1::__compressed_pair"** %this.addr, align 8
  call void @llvm.dbg.declare(metadata %"class.std::__1::__compressed_pair"** %this.addr, metadata !1566, metadata !DIExpression()), !dbg !1568
  %this1 = load %"class.std::__1::__compressed_pair"*, %"class.std::__1::__compressed_pair"** %this.addr, align 8
  %0 = bitcast %"class.std::__1::__compressed_pair"* %this1 to %"struct.std::__1::__compressed_pair_elem"*, !dbg !1569
  %call = call nonnull align 8 dereferenceable(8) i32** @_ZNKSt3__122__compressed_pair_elemIPiLi0ELb0EE5__getEv(%"struct.std::__1::__compressed_pair_elem"* nonnull align 8 dereferenceable(8) %0) #14, !dbg !1570
  ret i32** %call, !dbg !1571
}

; Function Attrs: mustprogress noinline nounwind optnone ssp uwtable
define linkonce_odr hidden nonnull align 8 dereferenceable(8) i32** @_ZNKSt3__122__compressed_pair_elemIPiLi0ELb0EE5__getEv(%"struct.std::__1::__compressed_pair_elem"* nonnull align 8 dereferenceable(8) %this) #4 align 2 !dbg !1572 {
entry:
  %this.addr = alloca %"struct.std::__1::__compressed_pair_elem"*, align 8
  store %"struct.std::__1::__compressed_pair_elem"* %this, %"struct.std::__1::__compressed_pair_elem"** %this.addr, align 8
  call void @llvm.dbg.declare(metadata %"struct.std::__1::__compressed_pair_elem"** %this.addr, metadata !1573, metadata !DIExpression()), !dbg !1575
  %this1 = load %"struct.std::__1::__compressed_pair_elem"*, %"struct.std::__1::__compressed_pair_elem"** %this.addr, align 8
  %__value_ = getelementptr inbounds %"struct.std::__1::__compressed_pair_elem", %"struct.std::__1::__compressed_pair_elem"* %this1, i32 0, i32 0, !dbg !1576
  ret i32** %__value_, !dbg !1577
}

; Function Attrs: mustprogress noinline nounwind optnone ssp uwtable
define linkonce_odr hidden void @_ZNSt3__113__vector_baseIiNS_9allocatorIiEEE5clearEv(%"class.std::__1::__vector_base"* nonnull align 8 dereferenceable(24) %this) #4 align 2 !dbg !1578 {
entry:
  %this.addr = alloca %"class.std::__1::__vector_base"*, align 8
  store %"class.std::__1::__vector_base"* %this, %"class.std::__1::__vector_base"** %this.addr, align 8
  call void @llvm.dbg.declare(metadata %"class.std::__1::__vector_base"** %this.addr, metadata !1579, metadata !DIExpression()), !dbg !1580
  %this1 = load %"class.std::__1::__vector_base"*, %"class.std::__1::__vector_base"** %this.addr, align 8
  %__begin_ = getelementptr inbounds %"class.std::__1::__vector_base", %"class.std::__1::__vector_base"* %this1, i32 0, i32 0, !dbg !1581
  %0 = load i32*, i32** %__begin_, align 8, !dbg !1581
  call void @_ZNSt3__113__vector_baseIiNS_9allocatorIiEEE17__destruct_at_endEPi(%"class.std::__1::__vector_base"* nonnull align 8 dereferenceable(24) %this1, i32* %0) #14, !dbg !1582
  ret void, !dbg !1583
}

; Function Attrs: mustprogress noinline nounwind optnone ssp uwtable
define linkonce_odr hidden void @_ZNSt3__116allocator_traitsINS_9allocatorIiEEE10deallocateERS2_Pim(%"class.std::__1::allocator"* nonnull align 1 dereferenceable(1) %__a, i32* %__p, i64 %__n) #4 align 2 !dbg !1584 {
entry:
  %__a.addr = alloca %"class.std::__1::allocator"*, align 8
  %__p.addr = alloca i32*, align 8
  %__n.addr = alloca i64, align 8
  store %"class.std::__1::allocator"* %__a, %"class.std::__1::allocator"** %__a.addr, align 8
  call void @llvm.dbg.declare(metadata %"class.std::__1::allocator"** %__a.addr, metadata !1585, metadata !DIExpression()), !dbg !1586
  store i32* %__p, i32** %__p.addr, align 8
  call void @llvm.dbg.declare(metadata i32** %__p.addr, metadata !1587, metadata !DIExpression()), !dbg !1588
  store i64 %__n, i64* %__n.addr, align 8
  call void @llvm.dbg.declare(metadata i64* %__n.addr, metadata !1589, metadata !DIExpression()), !dbg !1590
  %0 = load %"class.std::__1::allocator"*, %"class.std::__1::allocator"** %__a.addr, align 8, !dbg !1591
  %1 = load i32*, i32** %__p.addr, align 8, !dbg !1592
  %2 = load i64, i64* %__n.addr, align 8, !dbg !1593
  call void @_ZNSt3__19allocatorIiE10deallocateEPim(%"class.std::__1::allocator"* nonnull align 1 dereferenceable(1) %0, i32* %1, i64 %2) #14, !dbg !1594
  ret void, !dbg !1595
}

; Function Attrs: mustprogress noinline nounwind optnone ssp uwtable
define linkonce_odr hidden nonnull align 1 dereferenceable(1) %"class.std::__1::allocator"* @_ZNSt3__113__vector_baseIiNS_9allocatorIiEEE7__allocEv(%"class.std::__1::__vector_base"* nonnull align 8 dereferenceable(24) %this) #4 align 2 !dbg !1596 {
entry:
  %this.addr = alloca %"class.std::__1::__vector_base"*, align 8
  store %"class.std::__1::__vector_base"* %this, %"class.std::__1::__vector_base"** %this.addr, align 8
  call void @llvm.dbg.declare(metadata %"class.std::__1::__vector_base"** %this.addr, metadata !1597, metadata !DIExpression()), !dbg !1598
  %this1 = load %"class.std::__1::__vector_base"*, %"class.std::__1::__vector_base"** %this.addr, align 8
  %__end_cap_ = getelementptr inbounds %"class.std::__1::__vector_base", %"class.std::__1::__vector_base"* %this1, i32 0, i32 2, !dbg !1599
  %call = call nonnull align 1 dereferenceable(1) %"class.std::__1::allocator"* @_ZNSt3__117__compressed_pairIPiNS_9allocatorIiEEE6secondEv(%"class.std::__1::__compressed_pair"* nonnull align 8 dereferenceable(8) %__end_cap_) #14, !dbg !1600
  ret %"class.std::__1::allocator"* %call, !dbg !1601
}

; Function Attrs: mustprogress noinline nounwind optnone ssp uwtable
define linkonce_odr hidden void @_ZNSt3__113__vector_baseIiNS_9allocatorIiEEE17__destruct_at_endEPi(%"class.std::__1::__vector_base"* nonnull align 8 dereferenceable(24) %this, i32* %__new_last) #4 align 2 personality i8* bitcast (i32 (...)* @__gxx_personality_v0 to i8*) !dbg !1602 {
entry:
  %this.addr = alloca %"class.std::__1::__vector_base"*, align 8
  %__new_last.addr = alloca i32*, align 8
  %__soon_to_be_end = alloca i32*, align 8
  store %"class.std::__1::__vector_base"* %this, %"class.std::__1::__vector_base"** %this.addr, align 8
  call void @llvm.dbg.declare(metadata %"class.std::__1::__vector_base"** %this.addr, metadata !1603, metadata !DIExpression()), !dbg !1604
  store i32* %__new_last, i32** %__new_last.addr, align 8
  call void @llvm.dbg.declare(metadata i32** %__new_last.addr, metadata !1605, metadata !DIExpression()), !dbg !1606
  %this1 = load %"class.std::__1::__vector_base"*, %"class.std::__1::__vector_base"** %this.addr, align 8
  call void @llvm.dbg.declare(metadata i32** %__soon_to_be_end, metadata !1607, metadata !DIExpression()), !dbg !1608
  %__end_ = getelementptr inbounds %"class.std::__1::__vector_base", %"class.std::__1::__vector_base"* %this1, i32 0, i32 1, !dbg !1609
  %0 = load i32*, i32** %__end_, align 8, !dbg !1609
  store i32* %0, i32** %__soon_to_be_end, align 8, !dbg !1608
  br label %while.cond, !dbg !1610

while.cond:                                       ; preds = %invoke.cont, %entry
  %1 = load i32*, i32** %__new_last.addr, align 8, !dbg !1611
  %2 = load i32*, i32** %__soon_to_be_end, align 8, !dbg !1612
  %cmp = icmp ne i32* %1, %2, !dbg !1613
  br i1 %cmp, label %while.body, label %while.end, !dbg !1610

while.body:                                       ; preds = %while.cond
  %call = call nonnull align 1 dereferenceable(1) %"class.std::__1::allocator"* @_ZNSt3__113__vector_baseIiNS_9allocatorIiEEE7__allocEv(%"class.std::__1::__vector_base"* nonnull align 8 dereferenceable(24) %this1) #14, !dbg !1614
  %3 = load i32*, i32** %__soon_to_be_end, align 8, !dbg !1615
  %incdec.ptr = getelementptr inbounds i32, i32* %3, i32 -1, !dbg !1615
  store i32* %incdec.ptr, i32** %__soon_to_be_end, align 8, !dbg !1615
  %call2 = call i32* @_ZNSt3__112__to_addressIiEEPT_S2_(i32* %incdec.ptr) #14, !dbg !1616
  invoke void @_ZNSt3__116allocator_traitsINS_9allocatorIiEEE7destroyIivEEvRS2_PT_(%"class.std::__1::allocator"* nonnull align 1 dereferenceable(1) %call, i32* %call2)
          to label %invoke.cont unwind label %terminate.lpad, !dbg !1617

invoke.cont:                                      ; preds = %while.body
  br label %while.cond, !dbg !1610, !llvm.loop !1618

while.end:                                        ; preds = %while.cond
  %4 = load i32*, i32** %__new_last.addr, align 8, !dbg !1621
  %__end_3 = getelementptr inbounds %"class.std::__1::__vector_base", %"class.std::__1::__vector_base"* %this1, i32 0, i32 1, !dbg !1622
  store i32* %4, i32** %__end_3, align 8, !dbg !1623
  ret void, !dbg !1624

terminate.lpad:                                   ; preds = %while.body
  %5 = landingpad { i8*, i32 }
          catch i8* null, !dbg !1617
  %6 = extractvalue { i8*, i32 } %5, 0, !dbg !1617
  call void @__clang_call_terminate(i8* %6) #15, !dbg !1617
  unreachable, !dbg !1617
}

; Function Attrs: mustprogress noinline optnone ssp uwtable
define linkonce_odr void @_ZNSt3__116allocator_traitsINS_9allocatorIiEEE7destroyIivEEvRS2_PT_(%"class.std::__1::allocator"* nonnull align 1 dereferenceable(1) %__a, i32* %__p) #3 align 2 !dbg !1625 {
entry:
  %__a.addr = alloca %"class.std::__1::allocator"*, align 8
  %__p.addr = alloca i32*, align 8
  store %"class.std::__1::allocator"* %__a, %"class.std::__1::allocator"** %__a.addr, align 8
  call void @llvm.dbg.declare(metadata %"class.std::__1::allocator"** %__a.addr, metadata !1630, metadata !DIExpression()), !dbg !1631
  store i32* %__p, i32** %__p.addr, align 8
  call void @llvm.dbg.declare(metadata i32** %__p.addr, metadata !1632, metadata !DIExpression()), !dbg !1633
  %0 = load %"class.std::__1::allocator"*, %"class.std::__1::allocator"** %__a.addr, align 8, !dbg !1634
  %1 = load i32*, i32** %__p.addr, align 8, !dbg !1635
  call void @_ZNSt3__19allocatorIiE7destroyEPi(%"class.std::__1::allocator"* nonnull align 1 dereferenceable(1) %0, i32* %1), !dbg !1636
  ret void, !dbg !1637
}

; Function Attrs: mustprogress noinline nounwind optnone ssp uwtable
define linkonce_odr hidden void @_ZNSt3__19allocatorIiE7destroyEPi(%"class.std::__1::allocator"* nonnull align 1 dereferenceable(1) %this, i32* %__p) #4 align 2 !dbg !1638 {
entry:
  %this.addr = alloca %"class.std::__1::allocator"*, align 8
  %__p.addr = alloca i32*, align 8
  store %"class.std::__1::allocator"* %this, %"class.std::__1::allocator"** %this.addr, align 8
  call void @llvm.dbg.declare(metadata %"class.std::__1::allocator"** %this.addr, metadata !1639, metadata !DIExpression()), !dbg !1640
  store i32* %__p, i32** %__p.addr, align 8
  call void @llvm.dbg.declare(metadata i32** %__p.addr, metadata !1641, metadata !DIExpression()), !dbg !1642
  %this1 = load %"class.std::__1::allocator"*, %"class.std::__1::allocator"** %this.addr, align 8
  %0 = load i32*, i32** %__p.addr, align 8, !dbg !1643
  ret void, !dbg !1644
}

; Function Attrs: mustprogress noinline nounwind optnone ssp uwtable
define linkonce_odr hidden void @_ZNSt3__19allocatorIiE10deallocateEPim(%"class.std::__1::allocator"* nonnull align 1 dereferenceable(1) %this, i32* %__p, i64 %__n) #4 align 2 personality i8* bitcast (i32 (...)* @__gxx_personality_v0 to i8*) !dbg !1645 {
entry:
  %this.addr = alloca %"class.std::__1::allocator"*, align 8
  %__p.addr = alloca i32*, align 8
  %__n.addr = alloca i64, align 8
  store %"class.std::__1::allocator"* %this, %"class.std::__1::allocator"** %this.addr, align 8
  call void @llvm.dbg.declare(metadata %"class.std::__1::allocator"** %this.addr, metadata !1646, metadata !DIExpression()), !dbg !1647
  store i32* %__p, i32** %__p.addr, align 8
  call void @llvm.dbg.declare(metadata i32** %__p.addr, metadata !1648, metadata !DIExpression()), !dbg !1649
  store i64 %__n, i64* %__n.addr, align 8
  call void @llvm.dbg.declare(metadata i64* %__n.addr, metadata !1650, metadata !DIExpression()), !dbg !1651
  %this1 = load %"class.std::__1::allocator"*, %"class.std::__1::allocator"** %this.addr, align 8
  %0 = load i32*, i32** %__p.addr, align 8, !dbg !1652
  %1 = bitcast i32* %0 to i8*, !dbg !1652
  %2 = load i64, i64* %__n.addr, align 8, !dbg !1655
  %mul = mul i64 %2, 4, !dbg !1656
  invoke void @_ZNSt3__119__libcpp_deallocateEPvmm(i8* %1, i64 %mul, i64 4)
          to label %invoke.cont unwind label %terminate.lpad, !dbg !1657

invoke.cont:                                      ; preds = %entry
  ret void, !dbg !1658

terminate.lpad:                                   ; preds = %entry
  %3 = landingpad { i8*, i32 }
          catch i8* null, !dbg !1657
  %4 = extractvalue { i8*, i32 } %3, 0, !dbg !1657
  call void @__clang_call_terminate(i8* %4) #15, !dbg !1657
  unreachable, !dbg !1657
}

; Function Attrs: mustprogress noinline optnone ssp uwtable
define linkonce_odr hidden void @_ZNSt3__119__libcpp_deallocateEPvmm(i8* %__ptr, i64 %__size, i64 %__align) #3 !dbg !1659 {
entry:
  %__ptr.addr = alloca i8*, align 8
  %__size.addr = alloca i64, align 8
  %__align.addr = alloca i64, align 8
  store i8* %__ptr, i8** %__ptr.addr, align 8
  call void @llvm.dbg.declare(metadata i8** %__ptr.addr, metadata !1663, metadata !DIExpression()), !dbg !1664
  store i64 %__size, i64* %__size.addr, align 8
  call void @llvm.dbg.declare(metadata i64* %__size.addr, metadata !1665, metadata !DIExpression()), !dbg !1666
  store i64 %__align, i64* %__align.addr, align 8
  call void @llvm.dbg.declare(metadata i64* %__align.addr, metadata !1667, metadata !DIExpression()), !dbg !1668
  %0 = load i8*, i8** %__ptr.addr, align 8, !dbg !1669
  %1 = load i64, i64* %__size.addr, align 8, !dbg !1670
  call void @_ZNSt3__127__do_deallocate_handle_sizeIJEEEvPvmDpT_(i8* %0, i64 %1), !dbg !1671
  ret void, !dbg !1672
}

; Function Attrs: mustprogress noinline optnone ssp uwtable
define linkonce_odr hidden void @_ZNSt3__127__do_deallocate_handle_sizeIJEEEvPvmDpT_(i8* %__ptr, i64 %__size) #3 !dbg !1673 {
entry:
  %__ptr.addr = alloca i8*, align 8
  %__size.addr = alloca i64, align 8
  store i8* %__ptr, i8** %__ptr.addr, align 8
  call void @llvm.dbg.declare(metadata i8** %__ptr.addr, metadata !1678, metadata !DIExpression()), !dbg !1679
  store i64 %__size, i64* %__size.addr, align 8
  call void @llvm.dbg.declare(metadata i64* %__size.addr, metadata !1680, metadata !DIExpression()), !dbg !1681
  %0 = load i8*, i8** %__ptr.addr, align 8, !dbg !1682
  call void @_ZNSt3__124__libcpp_operator_deleteIJPvEEEvDpT_(i8* %0), !dbg !1683
  ret void, !dbg !1684
}

; Function Attrs: mustprogress noinline nounwind optnone ssp uwtable
define linkonce_odr hidden void @_ZNSt3__124__libcpp_operator_deleteIJPvEEEvDpT_(i8* %__args) #4 !dbg !1685 {
entry:
  %__args.addr = alloca i8*, align 8
  store i8* %__args, i8** %__args.addr, align 8
  call void @llvm.dbg.declare(metadata i8** %__args.addr, metadata !1690, metadata !DIExpression()), !dbg !1691
  %0 = load i8*, i8** %__args.addr, align 8, !dbg !1692
  call void @_ZdlPv(i8* %0) #16, !dbg !1693
  ret void, !dbg !1694
}

; Function Attrs: nobuiltin nounwind
declare void @_ZdlPv(i8*) #7

; Function Attrs: mustprogress noinline nounwind optnone ssp uwtable
define linkonce_odr hidden nonnull align 1 dereferenceable(1) %"class.std::__1::allocator"* @_ZNSt3__117__compressed_pairIPiNS_9allocatorIiEEE6secondEv(%"class.std::__1::__compressed_pair"* nonnull align 8 dereferenceable(8) %this) #4 align 2 !dbg !1695 {
entry:
  %this.addr = alloca %"class.std::__1::__compressed_pair"*, align 8
  store %"class.std::__1::__compressed_pair"* %this, %"class.std::__1::__compressed_pair"** %this.addr, align 8
  call void @llvm.dbg.declare(metadata %"class.std::__1::__compressed_pair"** %this.addr, metadata !1696, metadata !DIExpression()), !dbg !1697
  %this1 = load %"class.std::__1::__compressed_pair"*, %"class.std::__1::__compressed_pair"** %this.addr, align 8
  %0 = bitcast %"class.std::__1::__compressed_pair"* %this1 to %"struct.std::__1::__compressed_pair_elem.0"*, !dbg !1698
  %call = call nonnull align 1 dereferenceable(1) %"class.std::__1::allocator"* @_ZNSt3__122__compressed_pair_elemINS_9allocatorIiEELi1ELb1EE5__getEv(%"struct.std::__1::__compressed_pair_elem.0"* nonnull align 1 dereferenceable(1) %0) #14, !dbg !1699
  ret %"class.std::__1::allocator"* %call, !dbg !1700
}

; Function Attrs: mustprogress noinline nounwind optnone ssp uwtable
define linkonce_odr hidden nonnull align 1 dereferenceable(1) %"class.std::__1::allocator"* @_ZNSt3__122__compressed_pair_elemINS_9allocatorIiEELi1ELb1EE5__getEv(%"struct.std::__1::__compressed_pair_elem.0"* nonnull align 1 dereferenceable(1) %this) #4 align 2 !dbg !1701 {
entry:
  %this.addr = alloca %"struct.std::__1::__compressed_pair_elem.0"*, align 8
  store %"struct.std::__1::__compressed_pair_elem.0"* %this, %"struct.std::__1::__compressed_pair_elem.0"** %this.addr, align 8
  call void @llvm.dbg.declare(metadata %"struct.std::__1::__compressed_pair_elem.0"** %this.addr, metadata !1702, metadata !DIExpression()), !dbg !1703
  %this1 = load %"struct.std::__1::__compressed_pair_elem.0"*, %"struct.std::__1::__compressed_pair_elem.0"** %this.addr, align 8
  %0 = bitcast %"struct.std::__1::__compressed_pair_elem.0"* %this1 to %"class.std::__1::allocator"*, !dbg !1704
  ret %"class.std::__1::allocator"* %0, !dbg !1705
}

; Function Attrs: mustprogress noinline nounwind optnone ssp uwtable
define linkonce_odr hidden nonnull align 8 dereferenceable(8) i32** @_ZNSt3__113__vector_baseIiNS_9allocatorIiEEE9__end_capEv(%"class.std::__1::__vector_base"* nonnull align 8 dereferenceable(24) %this) #4 align 2 !dbg !1706 {
entry:
  %this.addr = alloca %"class.std::__1::__vector_base"*, align 8
  store %"class.std::__1::__vector_base"* %this, %"class.std::__1::__vector_base"** %this.addr, align 8
  call void @llvm.dbg.declare(metadata %"class.std::__1::__vector_base"** %this.addr, metadata !1707, metadata !DIExpression()), !dbg !1708
  %this1 = load %"class.std::__1::__vector_base"*, %"class.std::__1::__vector_base"** %this.addr, align 8
  %__end_cap_ = getelementptr inbounds %"class.std::__1::__vector_base", %"class.std::__1::__vector_base"* %this1, i32 0, i32 2, !dbg !1709
  %call = call nonnull align 8 dereferenceable(8) i32** @_ZNSt3__117__compressed_pairIPiNS_9allocatorIiEEE5firstEv(%"class.std::__1::__compressed_pair"* nonnull align 8 dereferenceable(8) %__end_cap_) #14, !dbg !1710
  ret i32** %call, !dbg !1711
}

; Function Attrs: mustprogress noinline optnone ssp uwtable
define linkonce_odr void @_ZNSt3__16vectorIiNS_9allocatorIiEEE22__construct_one_at_endIJRKiEEEvDpOT_(%"class.std::__1::vector"* nonnull align 8 dereferenceable(24) %this, i32* nonnull align 4 dereferenceable(4) %__args) #3 align 2 personality i8* bitcast (i32 (...)* @__gxx_personality_v0 to i8*) !dbg !1712 {
entry:
  %this.addr = alloca %"class.std::__1::vector"*, align 8
  %__args.addr = alloca i32*, align 8
  %__tx = alloca %"struct.std::__1::vector<int>::_ConstructTransaction", align 8
  %exn.slot = alloca i8*, align 8
  %ehselector.slot = alloca i32, align 4
  store %"class.std::__1::vector"* %this, %"class.std::__1::vector"** %this.addr, align 8
  call void @llvm.dbg.declare(metadata %"class.std::__1::vector"** %this.addr, metadata !1720, metadata !DIExpression()), !dbg !1721
  store i32* %__args, i32** %__args.addr, align 8
  call void @llvm.dbg.declare(metadata i32** %__args.addr, metadata !1722, metadata !DIExpression()), !dbg !1723
  %this1 = load %"class.std::__1::vector"*, %"class.std::__1::vector"** %this.addr, align 8
  call void @llvm.dbg.declare(metadata %"struct.std::__1::vector<int>::_ConstructTransaction"* %__tx, metadata !1724, metadata !DIExpression()), !dbg !1747
  call void @_ZNSt3__16vectorIiNS_9allocatorIiEEE21_ConstructTransactionC1ERS3_m(%"struct.std::__1::vector<int>::_ConstructTransaction"* nonnull align 8 dereferenceable(24) %__tx, %"class.std::__1::vector"* nonnull align 8 dereferenceable(24) %this1, i64 1), !dbg !1747
  %0 = bitcast %"class.std::__1::vector"* %this1 to %"class.std::__1::__vector_base"*, !dbg !1748
  %call = call nonnull align 1 dereferenceable(1) %"class.std::__1::allocator"* @_ZNSt3__113__vector_baseIiNS_9allocatorIiEEE7__allocEv(%"class.std::__1::__vector_base"* nonnull align 8 dereferenceable(24) %0) #14, !dbg !1748
  %__pos_ = getelementptr inbounds %"struct.std::__1::vector<int>::_ConstructTransaction", %"struct.std::__1::vector<int>::_ConstructTransaction"* %__tx, i32 0, i32 1, !dbg !1749
  %1 = load i32*, i32** %__pos_, align 8, !dbg !1749
  %call2 = call i32* @_ZNSt3__112__to_addressIiEEPT_S2_(i32* %1) #14, !dbg !1750
  %2 = load i32*, i32** %__args.addr, align 8, !dbg !1751
  %call3 = call nonnull align 4 dereferenceable(4) i32* @_ZNSt3__17forwardIRKiEEOT_RNS_16remove_referenceIS3_E4typeE(i32* nonnull align 4 dereferenceable(4) %2) #14, !dbg !1752
  invoke void @_ZNSt3__116allocator_traitsINS_9allocatorIiEEE9constructIiJRKiEvEEvRS2_PT_DpOT0_(%"class.std::__1::allocator"* nonnull align 1 dereferenceable(1) %call, i32* %call2, i32* nonnull align 4 dereferenceable(4) %call3)
          to label %invoke.cont unwind label %lpad, !dbg !1753

invoke.cont:                                      ; preds = %entry
  %__pos_4 = getelementptr inbounds %"struct.std::__1::vector<int>::_ConstructTransaction", %"struct.std::__1::vector<int>::_ConstructTransaction"* %__tx, i32 0, i32 1, !dbg !1754
  %3 = load i32*, i32** %__pos_4, align 8, !dbg !1755
  %incdec.ptr = getelementptr inbounds i32, i32* %3, i32 1, !dbg !1755
  store i32* %incdec.ptr, i32** %__pos_4, align 8, !dbg !1755
  call void @_ZNSt3__16vectorIiNS_9allocatorIiEEE21_ConstructTransactionD1Ev(%"struct.std::__1::vector<int>::_ConstructTransaction"* nonnull align 8 dereferenceable(24) %__tx) #14, !dbg !1756
  ret void, !dbg !1756

lpad:                                             ; preds = %entry
  %4 = landingpad { i8*, i32 }
          cleanup, !dbg !1756
  %5 = extractvalue { i8*, i32 } %4, 0, !dbg !1756
  store i8* %5, i8** %exn.slot, align 8, !dbg !1756
  %6 = extractvalue { i8*, i32 } %4, 1, !dbg !1756
  store i32 %6, i32* %ehselector.slot, align 4, !dbg !1756
  call void @_ZNSt3__16vectorIiNS_9allocatorIiEEE21_ConstructTransactionD1Ev(%"struct.std::__1::vector<int>::_ConstructTransaction"* nonnull align 8 dereferenceable(24) %__tx) #14, !dbg !1756
  br label %eh.resume, !dbg !1756

eh.resume:                                        ; preds = %lpad
  %exn = load i8*, i8** %exn.slot, align 8, !dbg !1756
  %sel = load i32, i32* %ehselector.slot, align 4, !dbg !1756
  %lpad.val = insertvalue { i8*, i32 } undef, i8* %exn, 0, !dbg !1756
  %lpad.val5 = insertvalue { i8*, i32 } %lpad.val, i32 %sel, 1, !dbg !1756
  resume { i8*, i32 } %lpad.val5, !dbg !1756
}

; Function Attrs: mustprogress noinline optnone ssp uwtable
define linkonce_odr void @_ZNSt3__16vectorIiNS_9allocatorIiEEE21__push_back_slow_pathIRKiEEvOT_(%"class.std::__1::vector"* nonnull align 8 dereferenceable(24) %this, i32* nonnull align 4 dereferenceable(4) %__x) #3 align 2 personality i8* bitcast (i32 (...)* @__gxx_personality_v0 to i8*) !dbg !1757 {
entry:
  %this.addr = alloca %"class.std::__1::vector"*, align 8
  %__x.addr = alloca i32*, align 8
  %__a = alloca %"class.std::__1::allocator"*, align 8
  %__v = alloca %"struct.std::__1::__split_buffer", align 8
  %exn.slot = alloca i8*, align 8
  %ehselector.slot = alloca i32, align 4
  store %"class.std::__1::vector"* %this, %"class.std::__1::vector"** %this.addr, align 8
  call void @llvm.dbg.declare(metadata %"class.std::__1::vector"** %this.addr, metadata !1761, metadata !DIExpression()), !dbg !1762
  store i32* %__x, i32** %__x.addr, align 8
  call void @llvm.dbg.declare(metadata i32** %__x.addr, metadata !1763, metadata !DIExpression()), !dbg !1764
  %this1 = load %"class.std::__1::vector"*, %"class.std::__1::vector"** %this.addr, align 8
  call void @llvm.dbg.declare(metadata %"class.std::__1::allocator"** %__a, metadata !1765, metadata !DIExpression()), !dbg !1767
  %0 = bitcast %"class.std::__1::vector"* %this1 to %"class.std::__1::__vector_base"*, !dbg !1768
  %call = call nonnull align 1 dereferenceable(1) %"class.std::__1::allocator"* @_ZNSt3__113__vector_baseIiNS_9allocatorIiEEE7__allocEv(%"class.std::__1::__vector_base"* nonnull align 8 dereferenceable(24) %0) #14, !dbg !1768
  store %"class.std::__1::allocator"* %call, %"class.std::__1::allocator"** %__a, align 8, !dbg !1767
  call void @llvm.dbg.declare(metadata %"struct.std::__1::__split_buffer"* %__v, metadata !1769, metadata !DIExpression()), !dbg !1770
  %call2 = call i64 @_ZNKSt3__16vectorIiNS_9allocatorIiEEE4sizeEv(%"class.std::__1::vector"* nonnull align 8 dereferenceable(24) %this1) #14, !dbg !1771
  %add = add i64 %call2, 1, !dbg !1772
  %call3 = call i64 @_ZNKSt3__16vectorIiNS_9allocatorIiEEE11__recommendEm(%"class.std::__1::vector"* nonnull align 8 dereferenceable(24) %this1, i64 %add), !dbg !1773
  %call4 = call i64 @_ZNKSt3__16vectorIiNS_9allocatorIiEEE4sizeEv(%"class.std::__1::vector"* nonnull align 8 dereferenceable(24) %this1) #14, !dbg !1774
  %1 = load %"class.std::__1::allocator"*, %"class.std::__1::allocator"** %__a, align 8, !dbg !1775
  call void @_ZNSt3__114__split_bufferIiRNS_9allocatorIiEEEC1EmmS3_(%"struct.std::__1::__split_buffer"* nonnull align 8 dereferenceable(40) %__v, i64 %call3, i64 %call4, %"class.std::__1::allocator"* nonnull align 1 dereferenceable(1) %1), !dbg !1770
  %2 = load %"class.std::__1::allocator"*, %"class.std::__1::allocator"** %__a, align 8, !dbg !1776
  %__end_ = getelementptr inbounds %"struct.std::__1::__split_buffer", %"struct.std::__1::__split_buffer"* %__v, i32 0, i32 2, !dbg !1777
  %3 = load i32*, i32** %__end_, align 8, !dbg !1777
  %call5 = call i32* @_ZNSt3__112__to_addressIiEEPT_S2_(i32* %3) #14, !dbg !1778
  %4 = load i32*, i32** %__x.addr, align 8, !dbg !1779
  %call6 = call nonnull align 4 dereferenceable(4) i32* @_ZNSt3__17forwardIRKiEEOT_RNS_16remove_referenceIS3_E4typeE(i32* nonnull align 4 dereferenceable(4) %4) #14, !dbg !1780
  invoke void @_ZNSt3__116allocator_traitsINS_9allocatorIiEEE9constructIiJRKiEvEEvRS2_PT_DpOT0_(%"class.std::__1::allocator"* nonnull align 1 dereferenceable(1) %2, i32* %call5, i32* nonnull align 4 dereferenceable(4) %call6)
          to label %invoke.cont unwind label %lpad, !dbg !1781

invoke.cont:                                      ; preds = %entry
  %__end_7 = getelementptr inbounds %"struct.std::__1::__split_buffer", %"struct.std::__1::__split_buffer"* %__v, i32 0, i32 2, !dbg !1782
  %5 = load i32*, i32** %__end_7, align 8, !dbg !1783
  %incdec.ptr = getelementptr inbounds i32, i32* %5, i32 1, !dbg !1783
  store i32* %incdec.ptr, i32** %__end_7, align 8, !dbg !1783
  invoke void @_ZNSt3__16vectorIiNS_9allocatorIiEEE26__swap_out_circular_bufferERNS_14__split_bufferIiRS2_EE(%"class.std::__1::vector"* nonnull align 8 dereferenceable(24) %this1, %"struct.std::__1::__split_buffer"* nonnull align 8 dereferenceable(40) %__v)
          to label %invoke.cont8 unwind label %lpad, !dbg !1784

invoke.cont8:                                     ; preds = %invoke.cont
  call void @_ZNSt3__114__split_bufferIiRNS_9allocatorIiEEED1Ev(%"struct.std::__1::__split_buffer"* nonnull align 8 dereferenceable(40) %__v) #14, !dbg !1785
  ret void, !dbg !1785

lpad:                                             ; preds = %invoke.cont, %entry
  %6 = landingpad { i8*, i32 }
          cleanup, !dbg !1785
  %7 = extractvalue { i8*, i32 } %6, 0, !dbg !1785
  store i8* %7, i8** %exn.slot, align 8, !dbg !1785
  %8 = extractvalue { i8*, i32 } %6, 1, !dbg !1785
  store i32 %8, i32* %ehselector.slot, align 4, !dbg !1785
  call void @_ZNSt3__114__split_bufferIiRNS_9allocatorIiEEED1Ev(%"struct.std::__1::__split_buffer"* nonnull align 8 dereferenceable(40) %__v) #14, !dbg !1785
  br label %eh.resume, !dbg !1785

eh.resume:                                        ; preds = %lpad
  %exn = load i8*, i8** %exn.slot, align 8, !dbg !1785
  %sel = load i32, i32* %ehselector.slot, align 4, !dbg !1785
  %lpad.val = insertvalue { i8*, i32 } undef, i8* %exn, 0, !dbg !1785
  %lpad.val9 = insertvalue { i8*, i32 } %lpad.val, i32 %sel, 1, !dbg !1785
  resume { i8*, i32 } %lpad.val9, !dbg !1785
}

; Function Attrs: mustprogress noinline nounwind optnone ssp uwtable
define linkonce_odr hidden nonnull align 8 dereferenceable(8) i32** @_ZNSt3__117__compressed_pairIPiNS_9allocatorIiEEE5firstEv(%"class.std::__1::__compressed_pair"* nonnull align 8 dereferenceable(8) %this) #4 align 2 !dbg !1786 {
entry:
  %this.addr = alloca %"class.std::__1::__compressed_pair"*, align 8
  store %"class.std::__1::__compressed_pair"* %this, %"class.std::__1::__compressed_pair"** %this.addr, align 8
  call void @llvm.dbg.declare(metadata %"class.std::__1::__compressed_pair"** %this.addr, metadata !1787, metadata !DIExpression()), !dbg !1788
  %this1 = load %"class.std::__1::__compressed_pair"*, %"class.std::__1::__compressed_pair"** %this.addr, align 8
  %0 = bitcast %"class.std::__1::__compressed_pair"* %this1 to %"struct.std::__1::__compressed_pair_elem"*, !dbg !1789
  %call = call nonnull align 8 dereferenceable(8) i32** @_ZNSt3__122__compressed_pair_elemIPiLi0ELb0EE5__getEv(%"struct.std::__1::__compressed_pair_elem"* nonnull align 8 dereferenceable(8) %0) #14, !dbg !1790
  ret i32** %call, !dbg !1791
}

; Function Attrs: mustprogress noinline nounwind optnone ssp uwtable
define linkonce_odr hidden nonnull align 8 dereferenceable(8) i32** @_ZNSt3__122__compressed_pair_elemIPiLi0ELb0EE5__getEv(%"struct.std::__1::__compressed_pair_elem"* nonnull align 8 dereferenceable(8) %this) #4 align 2 !dbg !1792 {
entry:
  %this.addr = alloca %"struct.std::__1::__compressed_pair_elem"*, align 8
  store %"struct.std::__1::__compressed_pair_elem"* %this, %"struct.std::__1::__compressed_pair_elem"** %this.addr, align 8
  call void @llvm.dbg.declare(metadata %"struct.std::__1::__compressed_pair_elem"** %this.addr, metadata !1793, metadata !DIExpression()), !dbg !1794
  %this1 = load %"struct.std::__1::__compressed_pair_elem"*, %"struct.std::__1::__compressed_pair_elem"** %this.addr, align 8
  %__value_ = getelementptr inbounds %"struct.std::__1::__compressed_pair_elem", %"struct.std::__1::__compressed_pair_elem"* %this1, i32 0, i32 0, !dbg !1795
  ret i32** %__value_, !dbg !1796
}

; Function Attrs: noinline optnone ssp uwtable
define linkonce_odr void @_ZNSt3__16vectorIiNS_9allocatorIiEEE21_ConstructTransactionC1ERS3_m(%"struct.std::__1::vector<int>::_ConstructTransaction"* nonnull align 8 dereferenceable(24) %this, %"class.std::__1::vector"* nonnull align 8 dereferenceable(24) %__v, i64 %__n) unnamed_addr #6 align 2 !dbg !1797 {
entry:
  %this.addr = alloca %"struct.std::__1::vector<int>::_ConstructTransaction"*, align 8
  %__v.addr = alloca %"class.std::__1::vector"*, align 8
  %__n.addr = alloca i64, align 8
  store %"struct.std::__1::vector<int>::_ConstructTransaction"* %this, %"struct.std::__1::vector<int>::_ConstructTransaction"** %this.addr, align 8
  call void @llvm.dbg.declare(metadata %"struct.std::__1::vector<int>::_ConstructTransaction"** %this.addr, metadata !1798, metadata !DIExpression()), !dbg !1800
  store %"class.std::__1::vector"* %__v, %"class.std::__1::vector"** %__v.addr, align 8
  call void @llvm.dbg.declare(metadata %"class.std::__1::vector"** %__v.addr, metadata !1801, metadata !DIExpression()), !dbg !1802
  store i64 %__n, i64* %__n.addr, align 8
  call void @llvm.dbg.declare(metadata i64* %__n.addr, metadata !1803, metadata !DIExpression()), !dbg !1804
  %this1 = load %"struct.std::__1::vector<int>::_ConstructTransaction"*, %"struct.std::__1::vector<int>::_ConstructTransaction"** %this.addr, align 8
  %0 = load %"class.std::__1::vector"*, %"class.std::__1::vector"** %__v.addr, align 8, !dbg !1805
  %1 = load i64, i64* %__n.addr, align 8, !dbg !1805
  call void @_ZNSt3__16vectorIiNS_9allocatorIiEEE21_ConstructTransactionC2ERS3_m(%"struct.std::__1::vector<int>::_ConstructTransaction"* nonnull align 8 dereferenceable(24) %this1, %"class.std::__1::vector"* nonnull align 8 dereferenceable(24) %0, i64 %1), !dbg !1805
  ret void, !dbg !1806
}

; Function Attrs: mustprogress noinline optnone ssp uwtable
define linkonce_odr void @_ZNSt3__116allocator_traitsINS_9allocatorIiEEE9constructIiJRKiEvEEvRS2_PT_DpOT0_(%"class.std::__1::allocator"* nonnull align 1 dereferenceable(1) %__a, i32* %__p, i32* nonnull align 4 dereferenceable(4) %__args) #3 align 2 !dbg !1807 {
entry:
  %__a.addr = alloca %"class.std::__1::allocator"*, align 8
  %__p.addr = alloca i32*, align 8
  %__args.addr = alloca i32*, align 8
  store %"class.std::__1::allocator"* %__a, %"class.std::__1::allocator"** %__a.addr, align 8
  call void @llvm.dbg.declare(metadata %"class.std::__1::allocator"** %__a.addr, metadata !1812, metadata !DIExpression()), !dbg !1813
  store i32* %__p, i32** %__p.addr, align 8
  call void @llvm.dbg.declare(metadata i32** %__p.addr, metadata !1814, metadata !DIExpression()), !dbg !1815
  store i32* %__args, i32** %__args.addr, align 8
  call void @llvm.dbg.declare(metadata i32** %__args.addr, metadata !1816, metadata !DIExpression()), !dbg !1817
  %0 = load %"class.std::__1::allocator"*, %"class.std::__1::allocator"** %__a.addr, align 8, !dbg !1818
  %1 = load i32*, i32** %__p.addr, align 8, !dbg !1819
  %2 = load i32*, i32** %__args.addr, align 8, !dbg !1820
  %call = call nonnull align 4 dereferenceable(4) i32* @_ZNSt3__17forwardIRKiEEOT_RNS_16remove_referenceIS3_E4typeE(i32* nonnull align 4 dereferenceable(4) %2) #14, !dbg !1821
  call void @_ZNSt3__19allocatorIiE9constructIiJRKiEEEvPT_DpOT0_(%"class.std::__1::allocator"* nonnull align 1 dereferenceable(1) %0, i32* %1, i32* nonnull align 4 dereferenceable(4) %call), !dbg !1822
  ret void, !dbg !1823
}

; Function Attrs: mustprogress noinline nounwind optnone ssp uwtable
define linkonce_odr hidden nonnull align 4 dereferenceable(4) i32* @_ZNSt3__17forwardIRKiEEOT_RNS_16remove_referenceIS3_E4typeE(i32* nonnull align 4 dereferenceable(4) %__t) #4 !dbg !1824 {
entry:
  %__t.addr = alloca i32*, align 8
  store i32* %__t, i32** %__t.addr, align 8
  call void @llvm.dbg.declare(metadata i32** %__t.addr, metadata !1829, metadata !DIExpression()), !dbg !1830
  %0 = load i32*, i32** %__t.addr, align 8, !dbg !1831
  ret i32* %0, !dbg !1832
}

; Function Attrs: noinline nounwind optnone ssp uwtable
define linkonce_odr void @_ZNSt3__16vectorIiNS_9allocatorIiEEE21_ConstructTransactionD1Ev(%"struct.std::__1::vector<int>::_ConstructTransaction"* nonnull align 8 dereferenceable(24) %this) unnamed_addr #2 align 2 !dbg !1833 {
entry:
  %this.addr = alloca %"struct.std::__1::vector<int>::_ConstructTransaction"*, align 8
  store %"struct.std::__1::vector<int>::_ConstructTransaction"* %this, %"struct.std::__1::vector<int>::_ConstructTransaction"** %this.addr, align 8
  call void @llvm.dbg.declare(metadata %"struct.std::__1::vector<int>::_ConstructTransaction"** %this.addr, metadata !1834, metadata !DIExpression()), !dbg !1835
  %this1 = load %"struct.std::__1::vector<int>::_ConstructTransaction"*, %"struct.std::__1::vector<int>::_ConstructTransaction"** %this.addr, align 8
  call void @_ZNSt3__16vectorIiNS_9allocatorIiEEE21_ConstructTransactionD2Ev(%"struct.std::__1::vector<int>::_ConstructTransaction"* nonnull align 8 dereferenceable(24) %this1) #14, !dbg !1836
  ret void, !dbg !1837
}

; Function Attrs: noinline nounwind optnone ssp uwtable
define linkonce_odr void @_ZNSt3__16vectorIiNS_9allocatorIiEEE21_ConstructTransactionC2ERS3_m(%"struct.std::__1::vector<int>::_ConstructTransaction"* nonnull align 8 dereferenceable(24) %this, %"class.std::__1::vector"* nonnull align 8 dereferenceable(24) %__v, i64 %__n) unnamed_addr #2 align 2 !dbg !1838 {
entry:
  %this.addr = alloca %"struct.std::__1::vector<int>::_ConstructTransaction"*, align 8
  %__v.addr = alloca %"class.std::__1::vector"*, align 8
  %__n.addr = alloca i64, align 8
  store %"struct.std::__1::vector<int>::_ConstructTransaction"* %this, %"struct.std::__1::vector<int>::_ConstructTransaction"** %this.addr, align 8
  call void @llvm.dbg.declare(metadata %"struct.std::__1::vector<int>::_ConstructTransaction"** %this.addr, metadata !1839, metadata !DIExpression()), !dbg !1840
  store %"class.std::__1::vector"* %__v, %"class.std::__1::vector"** %__v.addr, align 8
  call void @llvm.dbg.declare(metadata %"class.std::__1::vector"** %__v.addr, metadata !1841, metadata !DIExpression()), !dbg !1842
  store i64 %__n, i64* %__n.addr, align 8
  call void @llvm.dbg.declare(metadata i64* %__n.addr, metadata !1843, metadata !DIExpression()), !dbg !1844
  %this1 = load %"struct.std::__1::vector<int>::_ConstructTransaction"*, %"struct.std::__1::vector<int>::_ConstructTransaction"** %this.addr, align 8
  %__v_ = getelementptr inbounds %"struct.std::__1::vector<int>::_ConstructTransaction", %"struct.std::__1::vector<int>::_ConstructTransaction"* %this1, i32 0, i32 0, !dbg !1845
  %0 = load %"class.std::__1::vector"*, %"class.std::__1::vector"** %__v.addr, align 8, !dbg !1846
  store %"class.std::__1::vector"* %0, %"class.std::__1::vector"** %__v_, align 8, !dbg !1845
  %__pos_ = getelementptr inbounds %"struct.std::__1::vector<int>::_ConstructTransaction", %"struct.std::__1::vector<int>::_ConstructTransaction"* %this1, i32 0, i32 1, !dbg !1847
  %1 = load %"class.std::__1::vector"*, %"class.std::__1::vector"** %__v.addr, align 8, !dbg !1848
  %2 = bitcast %"class.std::__1::vector"* %1 to %"class.std::__1::__vector_base"*, !dbg !1848
  %__end_ = getelementptr inbounds %"class.std::__1::__vector_base", %"class.std::__1::__vector_base"* %2, i32 0, i32 1, !dbg !1849
  %3 = load i32*, i32** %__end_, align 8, !dbg !1849
  store i32* %3, i32** %__pos_, align 8, !dbg !1847
  %__new_end_ = getelementptr inbounds %"struct.std::__1::vector<int>::_ConstructTransaction", %"struct.std::__1::vector<int>::_ConstructTransaction"* %this1, i32 0, i32 2, !dbg !1850
  %4 = load %"class.std::__1::vector"*, %"class.std::__1::vector"** %__v.addr, align 8, !dbg !1851
  %5 = bitcast %"class.std::__1::vector"* %4 to %"class.std::__1::__vector_base"*, !dbg !1851
  %__end_2 = getelementptr inbounds %"class.std::__1::__vector_base", %"class.std::__1::__vector_base"* %5, i32 0, i32 1, !dbg !1852
  %6 = load i32*, i32** %__end_2, align 8, !dbg !1852
  %7 = load i64, i64* %__n.addr, align 8, !dbg !1853
  %add.ptr = getelementptr inbounds i32, i32* %6, i64 %7, !dbg !1854
  store i32* %add.ptr, i32** %__new_end_, align 8, !dbg !1850
  ret void, !dbg !1855
}

; Function Attrs: mustprogress noinline nounwind optnone ssp uwtable
define linkonce_odr void @_ZNSt3__19allocatorIiE9constructIiJRKiEEEvPT_DpOT0_(%"class.std::__1::allocator"* nonnull align 1 dereferenceable(1) %this, i32* %__p, i32* nonnull align 4 dereferenceable(4) %__args) #4 align 2 !dbg !1856 {
entry:
  %this.addr = alloca %"class.std::__1::allocator"*, align 8
  %__p.addr = alloca i32*, align 8
  %__args.addr = alloca i32*, align 8
  store %"class.std::__1::allocator"* %this, %"class.std::__1::allocator"** %this.addr, align 8
  call void @llvm.dbg.declare(metadata %"class.std::__1::allocator"** %this.addr, metadata !1862, metadata !DIExpression()), !dbg !1863
  store i32* %__p, i32** %__p.addr, align 8
  call void @llvm.dbg.declare(metadata i32** %__p.addr, metadata !1864, metadata !DIExpression()), !dbg !1865
  store i32* %__args, i32** %__args.addr, align 8
  call void @llvm.dbg.declare(metadata i32** %__args.addr, metadata !1866, metadata !DIExpression()), !dbg !1867
  %this1 = load %"class.std::__1::allocator"*, %"class.std::__1::allocator"** %this.addr, align 8
  %0 = load i32*, i32** %__p.addr, align 8, !dbg !1868
  %1 = bitcast i32* %0 to i8*, !dbg !1868
  %2 = bitcast i8* %1 to i32*, !dbg !1869
  %3 = load i32*, i32** %__args.addr, align 8, !dbg !1870
  %call = call nonnull align 4 dereferenceable(4) i32* @_ZNSt3__17forwardIRKiEEOT_RNS_16remove_referenceIS3_E4typeE(i32* nonnull align 4 dereferenceable(4) %3) #14, !dbg !1871
  %4 = load i32, i32* %call, align 4, !dbg !1871
  store i32 %4, i32* %2, align 4, !dbg !1869
  ret void, !dbg !1872
}

; Function Attrs: noinline nounwind optnone ssp uwtable
define linkonce_odr void @_ZNSt3__16vectorIiNS_9allocatorIiEEE21_ConstructTransactionD2Ev(%"struct.std::__1::vector<int>::_ConstructTransaction"* nonnull align 8 dereferenceable(24) %this) unnamed_addr #2 align 2 !dbg !1873 {
entry:
  %this.addr = alloca %"struct.std::__1::vector<int>::_ConstructTransaction"*, align 8
  store %"struct.std::__1::vector<int>::_ConstructTransaction"* %this, %"struct.std::__1::vector<int>::_ConstructTransaction"** %this.addr, align 8
  call void @llvm.dbg.declare(metadata %"struct.std::__1::vector<int>::_ConstructTransaction"** %this.addr, metadata !1874, metadata !DIExpression()), !dbg !1875
  %this1 = load %"struct.std::__1::vector<int>::_ConstructTransaction"*, %"struct.std::__1::vector<int>::_ConstructTransaction"** %this.addr, align 8
  %__pos_ = getelementptr inbounds %"struct.std::__1::vector<int>::_ConstructTransaction", %"struct.std::__1::vector<int>::_ConstructTransaction"* %this1, i32 0, i32 1, !dbg !1876
  %0 = load i32*, i32** %__pos_, align 8, !dbg !1876
  %__v_ = getelementptr inbounds %"struct.std::__1::vector<int>::_ConstructTransaction", %"struct.std::__1::vector<int>::_ConstructTransaction"* %this1, i32 0, i32 0, !dbg !1878
  %1 = load %"class.std::__1::vector"*, %"class.std::__1::vector"** %__v_, align 8, !dbg !1878
  %2 = bitcast %"class.std::__1::vector"* %1 to %"class.std::__1::__vector_base"*, !dbg !1878
  %__end_ = getelementptr inbounds %"class.std::__1::__vector_base", %"class.std::__1::__vector_base"* %2, i32 0, i32 1, !dbg !1879
  store i32* %0, i32** %__end_, align 8, !dbg !1880
  ret void, !dbg !1881
}

; Function Attrs: mustprogress noinline optnone ssp uwtable
define linkonce_odr hidden i64 @_ZNKSt3__16vectorIiNS_9allocatorIiEEE11__recommendEm(%"class.std::__1::vector"* nonnull align 8 dereferenceable(24) %this, i64 %__new_size) #3 align 2 !dbg !1882 {
entry:
  %retval = alloca i64, align 8
  %this.addr = alloca %"class.std::__1::vector"*, align 8
  %__new_size.addr = alloca i64, align 8
  %__ms = alloca i64, align 8
  %__cap = alloca i64, align 8
  %ref.tmp = alloca i64, align 8
  store %"class.std::__1::vector"* %this, %"class.std::__1::vector"** %this.addr, align 8
  call void @llvm.dbg.declare(metadata %"class.std::__1::vector"** %this.addr, metadata !1883, metadata !DIExpression()), !dbg !1884
  store i64 %__new_size, i64* %__new_size.addr, align 8
  call void @llvm.dbg.declare(metadata i64* %__new_size.addr, metadata !1885, metadata !DIExpression()), !dbg !1886
  %this1 = load %"class.std::__1::vector"*, %"class.std::__1::vector"** %this.addr, align 8
  call void @llvm.dbg.declare(metadata i64* %__ms, metadata !1887, metadata !DIExpression()), !dbg !1889
  %call = call i64 @_ZNKSt3__16vectorIiNS_9allocatorIiEEE8max_sizeEv(%"class.std::__1::vector"* nonnull align 8 dereferenceable(24) %this1) #14, !dbg !1890
  store i64 %call, i64* %__ms, align 8, !dbg !1889
  %0 = load i64, i64* %__new_size.addr, align 8, !dbg !1891
  %1 = load i64, i64* %__ms, align 8, !dbg !1893
  %cmp = icmp ugt i64 %0, %1, !dbg !1894
  br i1 %cmp, label %if.then, label %if.end, !dbg !1895

if.then:                                          ; preds = %entry
  %2 = bitcast %"class.std::__1::vector"* %this1 to %"class.std::__1::__vector_base"*, !dbg !1896
  call void @_ZNKSt3__113__vector_baseIiNS_9allocatorIiEEE20__throw_length_errorEv(%"class.std::__1::__vector_base"* nonnull align 8 dereferenceable(24) %2) #17, !dbg !1896
  unreachable, !dbg !1896

if.end:                                           ; preds = %entry
  call void @llvm.dbg.declare(metadata i64* %__cap, metadata !1897, metadata !DIExpression()), !dbg !1898
  %call2 = call i64 @_ZNKSt3__16vectorIiNS_9allocatorIiEEE8capacityEv(%"class.std::__1::vector"* nonnull align 8 dereferenceable(24) %this1) #14, !dbg !1899
  store i64 %call2, i64* %__cap, align 8, !dbg !1898
  %3 = load i64, i64* %__cap, align 8, !dbg !1900
  %4 = load i64, i64* %__ms, align 8, !dbg !1902
  %div = udiv i64 %4, 2, !dbg !1903
  %cmp3 = icmp uge i64 %3, %div, !dbg !1904
  br i1 %cmp3, label %if.then4, label %if.end5, !dbg !1905

if.then4:                                         ; preds = %if.end
  %5 = load i64, i64* %__ms, align 8, !dbg !1906
  store i64 %5, i64* %retval, align 8, !dbg !1907
  br label %return, !dbg !1907

if.end5:                                          ; preds = %if.end
  %6 = load i64, i64* %__cap, align 8, !dbg !1908
  %mul = mul i64 2, %6, !dbg !1909
  store i64 %mul, i64* %ref.tmp, align 8, !dbg !1910
  %call6 = call nonnull align 8 dereferenceable(8) i64* @_ZNSt3__13maxImEERKT_S3_S3_(i64* nonnull align 8 dereferenceable(8) %ref.tmp, i64* nonnull align 8 dereferenceable(8) %__new_size.addr), !dbg !1911
  %7 = load i64, i64* %call6, align 8, !dbg !1911
  store i64 %7, i64* %retval, align 8, !dbg !1912
  br label %return, !dbg !1912

return:                                           ; preds = %if.end5, %if.then4
  %8 = load i64, i64* %retval, align 8, !dbg !1913
  ret i64 %8, !dbg !1913
}

; Function Attrs: noinline optnone ssp uwtable
define linkonce_odr void @_ZNSt3__114__split_bufferIiRNS_9allocatorIiEEEC1EmmS3_(%"struct.std::__1::__split_buffer"* nonnull align 8 dereferenceable(40) %this, i64 %__cap, i64 %__start, %"class.std::__1::allocator"* nonnull align 1 dereferenceable(1) %__a) unnamed_addr #6 align 2 !dbg !1914 {
entry:
  %this.addr = alloca %"struct.std::__1::__split_buffer"*, align 8
  %__cap.addr = alloca i64, align 8
  %__start.addr = alloca i64, align 8
  %__a.addr = alloca %"class.std::__1::allocator"*, align 8
  store %"struct.std::__1::__split_buffer"* %this, %"struct.std::__1::__split_buffer"** %this.addr, align 8
  call void @llvm.dbg.declare(metadata %"struct.std::__1::__split_buffer"** %this.addr, metadata !1915, metadata !DIExpression()), !dbg !1917
  store i64 %__cap, i64* %__cap.addr, align 8
  call void @llvm.dbg.declare(metadata i64* %__cap.addr, metadata !1918, metadata !DIExpression()), !dbg !1919
  store i64 %__start, i64* %__start.addr, align 8
  call void @llvm.dbg.declare(metadata i64* %__start.addr, metadata !1920, metadata !DIExpression()), !dbg !1921
  store %"class.std::__1::allocator"* %__a, %"class.std::__1::allocator"** %__a.addr, align 8
  call void @llvm.dbg.declare(metadata %"class.std::__1::allocator"** %__a.addr, metadata !1922, metadata !DIExpression()), !dbg !1923
  %this1 = load %"struct.std::__1::__split_buffer"*, %"struct.std::__1::__split_buffer"** %this.addr, align 8
  %0 = load i64, i64* %__cap.addr, align 8, !dbg !1924
  %1 = load i64, i64* %__start.addr, align 8, !dbg !1924
  %2 = load %"class.std::__1::allocator"*, %"class.std::__1::allocator"** %__a.addr, align 8, !dbg !1924
  call void @_ZNSt3__114__split_bufferIiRNS_9allocatorIiEEEC2EmmS3_(%"struct.std::__1::__split_buffer"* nonnull align 8 dereferenceable(40) %this1, i64 %0, i64 %1, %"class.std::__1::allocator"* nonnull align 1 dereferenceable(1) %2), !dbg !1924
  ret void, !dbg !1925
}

; Function Attrs: mustprogress noinline optnone ssp uwtable
define linkonce_odr void @_ZNSt3__16vectorIiNS_9allocatorIiEEE26__swap_out_circular_bufferERNS_14__split_bufferIiRS2_EE(%"class.std::__1::vector"* nonnull align 8 dereferenceable(24) %this, %"struct.std::__1::__split_buffer"* nonnull align 8 dereferenceable(40) %__v) #3 align 2 !dbg !1926 {
entry:
  %this.addr = alloca %"class.std::__1::vector"*, align 8
  %__v.addr = alloca %"struct.std::__1::__split_buffer"*, align 8
  store %"class.std::__1::vector"* %this, %"class.std::__1::vector"** %this.addr, align 8
  call void @llvm.dbg.declare(metadata %"class.std::__1::vector"** %this.addr, metadata !1927, metadata !DIExpression()), !dbg !1928
  store %"struct.std::__1::__split_buffer"* %__v, %"struct.std::__1::__split_buffer"** %__v.addr, align 8
  call void @llvm.dbg.declare(metadata %"struct.std::__1::__split_buffer"** %__v.addr, metadata !1929, metadata !DIExpression()), !dbg !1930
  %this1 = load %"class.std::__1::vector"*, %"class.std::__1::vector"** %this.addr, align 8
  call void @_ZNKSt3__16vectorIiNS_9allocatorIiEEE17__annotate_deleteEv(%"class.std::__1::vector"* nonnull align 8 dereferenceable(24) %this1) #14, !dbg !1931
  %0 = bitcast %"class.std::__1::vector"* %this1 to %"class.std::__1::__vector_base"*, !dbg !1932
  %call = call nonnull align 1 dereferenceable(1) %"class.std::__1::allocator"* @_ZNSt3__113__vector_baseIiNS_9allocatorIiEEE7__allocEv(%"class.std::__1::__vector_base"* nonnull align 8 dereferenceable(24) %0) #14, !dbg !1932
  %1 = bitcast %"class.std::__1::vector"* %this1 to %"class.std::__1::__vector_base"*, !dbg !1933
  %__begin_ = getelementptr inbounds %"class.std::__1::__vector_base", %"class.std::__1::__vector_base"* %1, i32 0, i32 0, !dbg !1933
  %2 = load i32*, i32** %__begin_, align 8, !dbg !1933
  %3 = bitcast %"class.std::__1::vector"* %this1 to %"class.std::__1::__vector_base"*, !dbg !1934
  %__end_ = getelementptr inbounds %"class.std::__1::__vector_base", %"class.std::__1::__vector_base"* %3, i32 0, i32 1, !dbg !1934
  %4 = load i32*, i32** %__end_, align 8, !dbg !1934
  %5 = load %"struct.std::__1::__split_buffer"*, %"struct.std::__1::__split_buffer"** %__v.addr, align 8, !dbg !1935
  %__begin_2 = getelementptr inbounds %"struct.std::__1::__split_buffer", %"struct.std::__1::__split_buffer"* %5, i32 0, i32 1, !dbg !1936
  call void @_ZNSt3__146__construct_backward_with_exception_guaranteesINS_9allocatorIiEEivEEvRT_PT0_S6_RS6_(%"class.std::__1::allocator"* nonnull align 1 dereferenceable(1) %call, i32* %2, i32* %4, i32** nonnull align 8 dereferenceable(8) %__begin_2), !dbg !1937
  %6 = bitcast %"class.std::__1::vector"* %this1 to %"class.std::__1::__vector_base"*, !dbg !1938
  %__begin_3 = getelementptr inbounds %"class.std::__1::__vector_base", %"class.std::__1::__vector_base"* %6, i32 0, i32 0, !dbg !1938
  %7 = load %"struct.std::__1::__split_buffer"*, %"struct.std::__1::__split_buffer"** %__v.addr, align 8, !dbg !1939
  %__begin_4 = getelementptr inbounds %"struct.std::__1::__split_buffer", %"struct.std::__1::__split_buffer"* %7, i32 0, i32 1, !dbg !1940
  call void @_ZNSt3__14swapIPiEENS_9enable_ifIXaasr21is_move_constructibleIT_EE5valuesr18is_move_assignableIS3_EE5valueEvE4typeERS3_S6_(i32** nonnull align 8 dereferenceable(8) %__begin_3, i32** nonnull align 8 dereferenceable(8) %__begin_4) #14, !dbg !1941
  %8 = bitcast %"class.std::__1::vector"* %this1 to %"class.std::__1::__vector_base"*, !dbg !1942
  %__end_5 = getelementptr inbounds %"class.std::__1::__vector_base", %"class.std::__1::__vector_base"* %8, i32 0, i32 1, !dbg !1942
  %9 = load %"struct.std::__1::__split_buffer"*, %"struct.std::__1::__split_buffer"** %__v.addr, align 8, !dbg !1943
  %__end_6 = getelementptr inbounds %"struct.std::__1::__split_buffer", %"struct.std::__1::__split_buffer"* %9, i32 0, i32 2, !dbg !1944
  call void @_ZNSt3__14swapIPiEENS_9enable_ifIXaasr21is_move_constructibleIT_EE5valuesr18is_move_assignableIS3_EE5valueEvE4typeERS3_S6_(i32** nonnull align 8 dereferenceable(8) %__end_5, i32** nonnull align 8 dereferenceable(8) %__end_6) #14, !dbg !1945
  %10 = bitcast %"class.std::__1::vector"* %this1 to %"class.std::__1::__vector_base"*, !dbg !1946
  %call7 = call nonnull align 8 dereferenceable(8) i32** @_ZNSt3__113__vector_baseIiNS_9allocatorIiEEE9__end_capEv(%"class.std::__1::__vector_base"* nonnull align 8 dereferenceable(24) %10) #14, !dbg !1946
  %11 = load %"struct.std::__1::__split_buffer"*, %"struct.std::__1::__split_buffer"** %__v.addr, align 8, !dbg !1947
  %call8 = call nonnull align 8 dereferenceable(8) i32** @_ZNSt3__114__split_bufferIiRNS_9allocatorIiEEE9__end_capEv(%"struct.std::__1::__split_buffer"* nonnull align 8 dereferenceable(40) %11) #14, !dbg !1948
  call void @_ZNSt3__14swapIPiEENS_9enable_ifIXaasr21is_move_constructibleIT_EE5valuesr18is_move_assignableIS3_EE5valueEvE4typeERS3_S6_(i32** nonnull align 8 dereferenceable(8) %call7, i32** nonnull align 8 dereferenceable(8) %call8) #14, !dbg !1949
  %12 = load %"struct.std::__1::__split_buffer"*, %"struct.std::__1::__split_buffer"** %__v.addr, align 8, !dbg !1950
  %__begin_9 = getelementptr inbounds %"struct.std::__1::__split_buffer", %"struct.std::__1::__split_buffer"* %12, i32 0, i32 1, !dbg !1951
  %13 = load i32*, i32** %__begin_9, align 8, !dbg !1951
  %14 = load %"struct.std::__1::__split_buffer"*, %"struct.std::__1::__split_buffer"** %__v.addr, align 8, !dbg !1952
  %__first_ = getelementptr inbounds %"struct.std::__1::__split_buffer", %"struct.std::__1::__split_buffer"* %14, i32 0, i32 0, !dbg !1953
  store i32* %13, i32** %__first_, align 8, !dbg !1954
  %call10 = call i64 @_ZNKSt3__16vectorIiNS_9allocatorIiEEE4sizeEv(%"class.std::__1::vector"* nonnull align 8 dereferenceable(24) %this1) #14, !dbg !1955
  call void @_ZNKSt3__16vectorIiNS_9allocatorIiEEE14__annotate_newEm(%"class.std::__1::vector"* nonnull align 8 dereferenceable(24) %this1, i64 %call10) #14, !dbg !1956
  call void @_ZNSt3__16vectorIiNS_9allocatorIiEEE26__invalidate_all_iteratorsEv(%"class.std::__1::vector"* nonnull align 8 dereferenceable(24) %this1), !dbg !1957
  ret void, !dbg !1958
}

; Function Attrs: noinline nounwind optnone ssp uwtable
define linkonce_odr void @_ZNSt3__114__split_bufferIiRNS_9allocatorIiEEED1Ev(%"struct.std::__1::__split_buffer"* nonnull align 8 dereferenceable(40) %this) unnamed_addr #2 align 2 !dbg !1959 {
entry:
  %this.addr = alloca %"struct.std::__1::__split_buffer"*, align 8
  store %"struct.std::__1::__split_buffer"* %this, %"struct.std::__1::__split_buffer"** %this.addr, align 8
  call void @llvm.dbg.declare(metadata %"struct.std::__1::__split_buffer"** %this.addr, metadata !1960, metadata !DIExpression()), !dbg !1961
  %this1 = load %"struct.std::__1::__split_buffer"*, %"struct.std::__1::__split_buffer"** %this.addr, align 8
  call void @_ZNSt3__114__split_bufferIiRNS_9allocatorIiEEED2Ev(%"struct.std::__1::__split_buffer"* nonnull align 8 dereferenceable(40) %this1) #14, !dbg !1962
  ret void, !dbg !1963
}

; Function Attrs: mustprogress noinline nounwind optnone ssp uwtable
define linkonce_odr i64 @_ZNKSt3__16vectorIiNS_9allocatorIiEEE8max_sizeEv(%"class.std::__1::vector"* nonnull align 8 dereferenceable(24) %this) #4 align 2 personality i8* bitcast (i32 (...)* @__gxx_personality_v0 to i8*) !dbg !1964 {
entry:
  %this.addr = alloca %"class.std::__1::vector"*, align 8
  %ref.tmp = alloca i64, align 8
  %ref.tmp3 = alloca i64, align 8
  store %"class.std::__1::vector"* %this, %"class.std::__1::vector"** %this.addr, align 8
  call void @llvm.dbg.declare(metadata %"class.std::__1::vector"** %this.addr, metadata !1965, metadata !DIExpression()), !dbg !1966
  %this1 = load %"class.std::__1::vector"*, %"class.std::__1::vector"** %this.addr, align 8
  %0 = bitcast %"class.std::__1::vector"* %this1 to %"class.std::__1::__vector_base"*, !dbg !1967
  %call = call nonnull align 1 dereferenceable(1) %"class.std::__1::allocator"* @_ZNKSt3__113__vector_baseIiNS_9allocatorIiEEE7__allocEv(%"class.std::__1::__vector_base"* nonnull align 8 dereferenceable(24) %0) #14, !dbg !1967
  %call2 = call i64 @_ZNSt3__116allocator_traitsINS_9allocatorIiEEE8max_sizeIS2_vEEmRKS2_(%"class.std::__1::allocator"* nonnull align 1 dereferenceable(1) %call) #14, !dbg !1968
  store i64 %call2, i64* %ref.tmp, align 8, !dbg !1968
  %call4 = call i64 @_ZNSt3__114numeric_limitsIlE3maxEv() #14, !dbg !1969
  store i64 %call4, i64* %ref.tmp3, align 8, !dbg !1969
  %call5 = invoke nonnull align 8 dereferenceable(8) i64* @_ZNSt3__13minImEERKT_S3_S3_(i64* nonnull align 8 dereferenceable(8) %ref.tmp, i64* nonnull align 8 dereferenceable(8) %ref.tmp3)
          to label %invoke.cont unwind label %terminate.lpad, !dbg !1970

invoke.cont:                                      ; preds = %entry
  %1 = load i64, i64* %call5, align 8, !dbg !1970
  ret i64 %1, !dbg !1971

terminate.lpad:                                   ; preds = %entry
  %2 = landingpad { i8*, i32 }
          catch i8* null, !dbg !1970
  %3 = extractvalue { i8*, i32 } %2, 0, !dbg !1970
  call void @__clang_call_terminate(i8* %3) #15, !dbg !1970
  unreachable, !dbg !1970
}

; Function Attrs: mustprogress noinline noreturn optnone ssp uwtable
define linkonce_odr hidden void @_ZNKSt3__113__vector_baseIiNS_9allocatorIiEEE20__throw_length_errorEv(%"class.std::__1::__vector_base"* nonnull align 8 dereferenceable(24) %this) #8 align 2 !dbg !1972 {
entry:
  %this.addr = alloca %"class.std::__1::__vector_base"*, align 8
  store %"class.std::__1::__vector_base"* %this, %"class.std::__1::__vector_base"** %this.addr, align 8
  call void @llvm.dbg.declare(metadata %"class.std::__1::__vector_base"** %this.addr, metadata !1973, metadata !DIExpression()), !dbg !1974
  %this1 = load %"class.std::__1::__vector_base"*, %"class.std::__1::__vector_base"** %this.addr, align 8
  %0 = bitcast %"class.std::__1::__vector_base"* %this1 to %"class.std::__1::__vector_base_common"*, !dbg !1975
  call void @_ZNKSt3__120__vector_base_commonILb1EE20__throw_length_errorEv(%"class.std::__1::__vector_base_common"* nonnull align 1 dereferenceable(1) %0) #17, !dbg !1975
  unreachable, !dbg !1975
}

; Function Attrs: mustprogress noinline optnone ssp uwtable
define linkonce_odr hidden nonnull align 8 dereferenceable(8) i64* @_ZNSt3__13maxImEERKT_S3_S3_(i64* nonnull align 8 dereferenceable(8) %__a, i64* nonnull align 8 dereferenceable(8) %__b) #3 !dbg !1976 {
entry:
  %__a.addr = alloca i64*, align 8
  %__b.addr = alloca i64*, align 8
  %agg.tmp = alloca %"struct.std::__1::__less", align 1
  store i64* %__a, i64** %__a.addr, align 8
  call void @llvm.dbg.declare(metadata i64** %__a.addr, metadata !1984, metadata !DIExpression()), !dbg !1985
  store i64* %__b, i64** %__b.addr, align 8
  call void @llvm.dbg.declare(metadata i64** %__b.addr, metadata !1986, metadata !DIExpression()), !dbg !1987
  %0 = load i64*, i64** %__a.addr, align 8, !dbg !1988
  %1 = load i64*, i64** %__b.addr, align 8, !dbg !1989
  %call = call nonnull align 8 dereferenceable(8) i64* @_ZNSt3__13maxImNS_6__lessImmEEEERKT_S5_S5_T0_(i64* nonnull align 8 dereferenceable(8) %0, i64* nonnull align 8 dereferenceable(8) %1), !dbg !1990
  ret i64* %call, !dbg !1991
}

; Function Attrs: mustprogress noinline optnone ssp uwtable
define linkonce_odr hidden nonnull align 8 dereferenceable(8) i64* @_ZNSt3__13minImEERKT_S3_S3_(i64* nonnull align 8 dereferenceable(8) %__a, i64* nonnull align 8 dereferenceable(8) %__b) #3 !dbg !1992 {
entry:
  %__a.addr = alloca i64*, align 8
  %__b.addr = alloca i64*, align 8
  %agg.tmp = alloca %"struct.std::__1::__less", align 1
  store i64* %__a, i64** %__a.addr, align 8
  call void @llvm.dbg.declare(metadata i64** %__a.addr, metadata !1994, metadata !DIExpression()), !dbg !1995
  store i64* %__b, i64** %__b.addr, align 8
  call void @llvm.dbg.declare(metadata i64** %__b.addr, metadata !1996, metadata !DIExpression()), !dbg !1997
  %0 = load i64*, i64** %__a.addr, align 8, !dbg !1998
  %1 = load i64*, i64** %__b.addr, align 8, !dbg !1999
  %call = call nonnull align 8 dereferenceable(8) i64* @_ZNSt3__13minImNS_6__lessImmEEEERKT_S5_S5_T0_(i64* nonnull align 8 dereferenceable(8) %0, i64* nonnull align 8 dereferenceable(8) %1), !dbg !2000
  ret i64* %call, !dbg !2001
}

; Function Attrs: mustprogress noinline nounwind optnone ssp uwtable
define linkonce_odr i64 @_ZNSt3__116allocator_traitsINS_9allocatorIiEEE8max_sizeIS2_vEEmRKS2_(%"class.std::__1::allocator"* nonnull align 1 dereferenceable(1) %__a) #4 align 2 !dbg !2002 {
entry:
  %__a.addr = alloca %"class.std::__1::allocator"*, align 8
  store %"class.std::__1::allocator"* %__a, %"class.std::__1::allocator"** %__a.addr, align 8
  call void @llvm.dbg.declare(metadata %"class.std::__1::allocator"** %__a.addr, metadata !2010, metadata !DIExpression()), !dbg !2011
  %0 = load %"class.std::__1::allocator"*, %"class.std::__1::allocator"** %__a.addr, align 8, !dbg !2012
  %call = call i64 @_ZNKSt3__19allocatorIiE8max_sizeEv(%"class.std::__1::allocator"* nonnull align 1 dereferenceable(1) %0) #14, !dbg !2013
  ret i64 %call, !dbg !2014
}

; Function Attrs: mustprogress noinline nounwind optnone ssp uwtable
define linkonce_odr hidden nonnull align 1 dereferenceable(1) %"class.std::__1::allocator"* @_ZNKSt3__113__vector_baseIiNS_9allocatorIiEEE7__allocEv(%"class.std::__1::__vector_base"* nonnull align 8 dereferenceable(24) %this) #4 align 2 !dbg !2015 {
entry:
  %this.addr = alloca %"class.std::__1::__vector_base"*, align 8
  store %"class.std::__1::__vector_base"* %this, %"class.std::__1::__vector_base"** %this.addr, align 8
  call void @llvm.dbg.declare(metadata %"class.std::__1::__vector_base"** %this.addr, metadata !2016, metadata !DIExpression()), !dbg !2017
  %this1 = load %"class.std::__1::__vector_base"*, %"class.std::__1::__vector_base"** %this.addr, align 8
  %__end_cap_ = getelementptr inbounds %"class.std::__1::__vector_base", %"class.std::__1::__vector_base"* %this1, i32 0, i32 2, !dbg !2018
  %call = call nonnull align 1 dereferenceable(1) %"class.std::__1::allocator"* @_ZNKSt3__117__compressed_pairIPiNS_9allocatorIiEEE6secondEv(%"class.std::__1::__compressed_pair"* nonnull align 8 dereferenceable(8) %__end_cap_) #14, !dbg !2019
  ret %"class.std::__1::allocator"* %call, !dbg !2020
}

; Function Attrs: mustprogress noinline nounwind optnone ssp uwtable
define linkonce_odr hidden i64 @_ZNSt3__114numeric_limitsIlE3maxEv() #4 align 2 !dbg !2021 {
entry:
  %call = call i64 @_ZNSt3__123__libcpp_numeric_limitsIlLb1EE3maxEv() #14, !dbg !2061
  ret i64 %call, !dbg !2062
}

; Function Attrs: mustprogress noinline optnone ssp uwtable
define linkonce_odr hidden nonnull align 8 dereferenceable(8) i64* @_ZNSt3__13minImNS_6__lessImmEEEERKT_S5_S5_T0_(i64* nonnull align 8 dereferenceable(8) %__a, i64* nonnull align 8 dereferenceable(8) %__b) #3 !dbg !2063 {
entry:
  %__comp = alloca %"struct.std::__1::__less", align 1
  %__a.addr = alloca i64*, align 8
  %__b.addr = alloca i64*, align 8
  store i64* %__a, i64** %__a.addr, align 8
  call void @llvm.dbg.declare(metadata i64** %__a.addr, metadata !2079, metadata !DIExpression()), !dbg !2080
  store i64* %__b, i64** %__b.addr, align 8
  call void @llvm.dbg.declare(metadata i64** %__b.addr, metadata !2081, metadata !DIExpression()), !dbg !2082
  call void @llvm.dbg.declare(metadata %"struct.std::__1::__less"* %__comp, metadata !2083, metadata !DIExpression()), !dbg !2084
  %0 = load i64*, i64** %__b.addr, align 8, !dbg !2085
  %1 = load i64*, i64** %__a.addr, align 8, !dbg !2086
  %call = call zeroext i1 @_ZNKSt3__16__lessImmEclERKmS3_(%"struct.std::__1::__less"* nonnull align 1 dereferenceable(1) %__comp, i64* nonnull align 8 dereferenceable(8) %0, i64* nonnull align 8 dereferenceable(8) %1), !dbg !2087
  br i1 %call, label %cond.true, label %cond.false, !dbg !2087

cond.true:                                        ; preds = %entry
  %2 = load i64*, i64** %__b.addr, align 8, !dbg !2088
  br label %cond.end, !dbg !2087

cond.false:                                       ; preds = %entry
  %3 = load i64*, i64** %__a.addr, align 8, !dbg !2089
  br label %cond.end, !dbg !2087

cond.end:                                         ; preds = %cond.false, %cond.true
  %cond-lvalue = phi i64* [ %2, %cond.true ], [ %3, %cond.false ], !dbg !2087
  ret i64* %cond-lvalue, !dbg !2090
}

; Function Attrs: mustprogress noinline nounwind optnone ssp uwtable
define linkonce_odr hidden zeroext i1 @_ZNKSt3__16__lessImmEclERKmS3_(%"struct.std::__1::__less"* nonnull align 1 dereferenceable(1) %this, i64* nonnull align 8 dereferenceable(8) %__x, i64* nonnull align 8 dereferenceable(8) %__y) #4 align 2 !dbg !2091 {
entry:
  %this.addr = alloca %"struct.std::__1::__less"*, align 8
  %__x.addr = alloca i64*, align 8
  %__y.addr = alloca i64*, align 8
  store %"struct.std::__1::__less"* %this, %"struct.std::__1::__less"** %this.addr, align 8
  call void @llvm.dbg.declare(metadata %"struct.std::__1::__less"** %this.addr, metadata !2092, metadata !DIExpression()), !dbg !2094
  store i64* %__x, i64** %__x.addr, align 8
  call void @llvm.dbg.declare(metadata i64** %__x.addr, metadata !2095, metadata !DIExpression()), !dbg !2096
  store i64* %__y, i64** %__y.addr, align 8
  call void @llvm.dbg.declare(metadata i64** %__y.addr, metadata !2097, metadata !DIExpression()), !dbg !2098
  %this1 = load %"struct.std::__1::__less"*, %"struct.std::__1::__less"** %this.addr, align 8
  %0 = load i64*, i64** %__x.addr, align 8, !dbg !2099
  %1 = load i64, i64* %0, align 8, !dbg !2099
  %2 = load i64*, i64** %__y.addr, align 8, !dbg !2100
  %3 = load i64, i64* %2, align 8, !dbg !2100
  %cmp = icmp ult i64 %1, %3, !dbg !2101
  ret i1 %cmp, !dbg !2102
}

; Function Attrs: mustprogress noinline nounwind optnone ssp uwtable
define linkonce_odr hidden i64 @_ZNKSt3__19allocatorIiE8max_sizeEv(%"class.std::__1::allocator"* nonnull align 1 dereferenceable(1) %this) #4 align 2 !dbg !2103 {
entry:
  %this.addr = alloca %"class.std::__1::allocator"*, align 8
  store %"class.std::__1::allocator"* %this, %"class.std::__1::allocator"** %this.addr, align 8
  call void @llvm.dbg.declare(metadata %"class.std::__1::allocator"** %this.addr, metadata !2104, metadata !DIExpression()), !dbg !2106
  %this1 = load %"class.std::__1::allocator"*, %"class.std::__1::allocator"** %this.addr, align 8
  ret i64 4611686018427387903, !dbg !2107
}

; Function Attrs: mustprogress noinline nounwind optnone ssp uwtable
define linkonce_odr hidden nonnull align 1 dereferenceable(1) %"class.std::__1::allocator"* @_ZNKSt3__117__compressed_pairIPiNS_9allocatorIiEEE6secondEv(%"class.std::__1::__compressed_pair"* nonnull align 8 dereferenceable(8) %this) #4 align 2 !dbg !2108 {
entry:
  %this.addr = alloca %"class.std::__1::__compressed_pair"*, align 8
  store %"class.std::__1::__compressed_pair"* %this, %"class.std::__1::__compressed_pair"** %this.addr, align 8
  call void @llvm.dbg.declare(metadata %"class.std::__1::__compressed_pair"** %this.addr, metadata !2109, metadata !DIExpression()), !dbg !2110
  %this1 = load %"class.std::__1::__compressed_pair"*, %"class.std::__1::__compressed_pair"** %this.addr, align 8
  %0 = bitcast %"class.std::__1::__compressed_pair"* %this1 to %"struct.std::__1::__compressed_pair_elem.0"*, !dbg !2111
  %call = call nonnull align 1 dereferenceable(1) %"class.std::__1::allocator"* @_ZNKSt3__122__compressed_pair_elemINS_9allocatorIiEELi1ELb1EE5__getEv(%"struct.std::__1::__compressed_pair_elem.0"* nonnull align 1 dereferenceable(1) %0) #14, !dbg !2112
  ret %"class.std::__1::allocator"* %call, !dbg !2113
}

; Function Attrs: mustprogress noinline nounwind optnone ssp uwtable
define linkonce_odr hidden nonnull align 1 dereferenceable(1) %"class.std::__1::allocator"* @_ZNKSt3__122__compressed_pair_elemINS_9allocatorIiEELi1ELb1EE5__getEv(%"struct.std::__1::__compressed_pair_elem.0"* nonnull align 1 dereferenceable(1) %this) #4 align 2 !dbg !2114 {
entry:
  %this.addr = alloca %"struct.std::__1::__compressed_pair_elem.0"*, align 8
  store %"struct.std::__1::__compressed_pair_elem.0"* %this, %"struct.std::__1::__compressed_pair_elem.0"** %this.addr, align 8
  call void @llvm.dbg.declare(metadata %"struct.std::__1::__compressed_pair_elem.0"** %this.addr, metadata !2115, metadata !DIExpression()), !dbg !2117
  %this1 = load %"struct.std::__1::__compressed_pair_elem.0"*, %"struct.std::__1::__compressed_pair_elem.0"** %this.addr, align 8
  %0 = bitcast %"struct.std::__1::__compressed_pair_elem.0"* %this1 to %"class.std::__1::allocator"*, !dbg !2118
  ret %"class.std::__1::allocator"* %0, !dbg !2119
}

; Function Attrs: mustprogress noinline nounwind optnone ssp uwtable
define linkonce_odr hidden i64 @_ZNSt3__123__libcpp_numeric_limitsIlLb1EE3maxEv() #4 align 2 !dbg !2120 {
entry:
  ret i64 9223372036854775807, !dbg !2121
}

; Function Attrs: noreturn
declare void @_ZNKSt3__120__vector_base_commonILb1EE20__throw_length_errorEv(%"class.std::__1::__vector_base_common"* nonnull align 1 dereferenceable(1)) #9

; Function Attrs: mustprogress noinline nounwind optnone ssp uwtable
define linkonce_odr hidden nonnull align 8 dereferenceable(8) i64* @_ZNSt3__13maxImNS_6__lessImmEEEERKT_S5_S5_T0_(i64* nonnull align 8 dereferenceable(8) %__a, i64* nonnull align 8 dereferenceable(8) %__b) #4 !dbg !2122 {
entry:
  %__comp = alloca %"struct.std::__1::__less", align 1
  %__a.addr = alloca i64*, align 8
  %__b.addr = alloca i64*, align 8
  store i64* %__a, i64** %__a.addr, align 8
  call void @llvm.dbg.declare(metadata i64** %__a.addr, metadata !2123, metadata !DIExpression()), !dbg !2124
  store i64* %__b, i64** %__b.addr, align 8
  call void @llvm.dbg.declare(metadata i64** %__b.addr, metadata !2125, metadata !DIExpression()), !dbg !2126
  call void @llvm.dbg.declare(metadata %"struct.std::__1::__less"* %__comp, metadata !2127, metadata !DIExpression()), !dbg !2128
  %0 = load i64*, i64** %__a.addr, align 8, !dbg !2129
  %1 = load i64*, i64** %__b.addr, align 8, !dbg !2130
  %call = call zeroext i1 @_ZNKSt3__16__lessImmEclERKmS3_(%"struct.std::__1::__less"* nonnull align 1 dereferenceable(1) %__comp, i64* nonnull align 8 dereferenceable(8) %0, i64* nonnull align 8 dereferenceable(8) %1), !dbg !2131
  br i1 %call, label %cond.true, label %cond.false, !dbg !2131

cond.true:                                        ; preds = %entry
  %2 = load i64*, i64** %__b.addr, align 8, !dbg !2132
  br label %cond.end, !dbg !2131

cond.false:                                       ; preds = %entry
  %3 = load i64*, i64** %__a.addr, align 8, !dbg !2133
  br label %cond.end, !dbg !2131

cond.end:                                         ; preds = %cond.false, %cond.true
  %cond-lvalue = phi i64* [ %2, %cond.true ], [ %3, %cond.false ], !dbg !2131
  ret i64* %cond-lvalue, !dbg !2134
}

; Function Attrs: noinline optnone ssp uwtable
define linkonce_odr void @_ZNSt3__114__split_bufferIiRNS_9allocatorIiEEEC2EmmS3_(%"struct.std::__1::__split_buffer"* nonnull align 8 dereferenceable(40) %this, i64 %__cap, i64 %__start, %"class.std::__1::allocator"* nonnull align 1 dereferenceable(1) %__a) unnamed_addr #6 align 2 !dbg !2135 {
entry:
  %this.addr = alloca %"struct.std::__1::__split_buffer"*, align 8
  %__cap.addr = alloca i64, align 8
  %__start.addr = alloca i64, align 8
  %__a.addr = alloca %"class.std::__1::allocator"*, align 8
  %ref.tmp = alloca i8*, align 8
  store %"struct.std::__1::__split_buffer"* %this, %"struct.std::__1::__split_buffer"** %this.addr, align 8
  call void @llvm.dbg.declare(metadata %"struct.std::__1::__split_buffer"** %this.addr, metadata !2136, metadata !DIExpression()), !dbg !2137
  store i64 %__cap, i64* %__cap.addr, align 8
  call void @llvm.dbg.declare(metadata i64* %__cap.addr, metadata !2138, metadata !DIExpression()), !dbg !2139
  store i64 %__start, i64* %__start.addr, align 8
  call void @llvm.dbg.declare(metadata i64* %__start.addr, metadata !2140, metadata !DIExpression()), !dbg !2141
  store %"class.std::__1::allocator"* %__a, %"class.std::__1::allocator"** %__a.addr, align 8
  call void @llvm.dbg.declare(metadata %"class.std::__1::allocator"** %__a.addr, metadata !2142, metadata !DIExpression()), !dbg !2143
  %this1 = load %"struct.std::__1::__split_buffer"*, %"struct.std::__1::__split_buffer"** %this.addr, align 8
  %0 = bitcast %"struct.std::__1::__split_buffer"* %this1 to %"class.std::__1::__split_buffer_common"*, !dbg !2144
  %__end_cap_ = getelementptr inbounds %"struct.std::__1::__split_buffer", %"struct.std::__1::__split_buffer"* %this1, i32 0, i32 3, !dbg !2145
  store i8* null, i8** %ref.tmp, align 8, !dbg !2146
  %1 = load %"class.std::__1::allocator"*, %"class.std::__1::allocator"** %__a.addr, align 8, !dbg !2147
  call void @_ZNSt3__117__compressed_pairIPiRNS_9allocatorIiEEEC1IDnS4_EEOT_OT0_(%"class.std::__1::__compressed_pair.1"* nonnull align 8 dereferenceable(16) %__end_cap_, i8** nonnull align 8 dereferenceable(8) %ref.tmp, %"class.std::__1::allocator"* nonnull align 1 dereferenceable(1) %1), !dbg !2145
  %2 = load i64, i64* %__cap.addr, align 8, !dbg !2148
  %cmp = icmp ne i64 %2, 0, !dbg !2150
  br i1 %cmp, label %cond.true, label %cond.false, !dbg !2148

cond.true:                                        ; preds = %entry
  %call = call nonnull align 1 dereferenceable(1) %"class.std::__1::allocator"* @_ZNSt3__114__split_bufferIiRNS_9allocatorIiEEE7__allocEv(%"struct.std::__1::__split_buffer"* nonnull align 8 dereferenceable(40) %this1) #14, !dbg !2151
  %3 = load i64, i64* %__cap.addr, align 8, !dbg !2152
  %call2 = call i32* @_ZNSt3__116allocator_traitsINS_9allocatorIiEEE8allocateERS2_m(%"class.std::__1::allocator"* nonnull align 1 dereferenceable(1) %call, i64 %3), !dbg !2153
  br label %cond.end, !dbg !2148

cond.false:                                       ; preds = %entry
  br label %cond.end, !dbg !2148

cond.end:                                         ; preds = %cond.false, %cond.true
  %cond = phi i32* [ %call2, %cond.true ], [ null, %cond.false ], !dbg !2148
  %__first_ = getelementptr inbounds %"struct.std::__1::__split_buffer", %"struct.std::__1::__split_buffer"* %this1, i32 0, i32 0, !dbg !2154
  store i32* %cond, i32** %__first_, align 8, !dbg !2155
  %__first_3 = getelementptr inbounds %"struct.std::__1::__split_buffer", %"struct.std::__1::__split_buffer"* %this1, i32 0, i32 0, !dbg !2156
  %4 = load i32*, i32** %__first_3, align 8, !dbg !2156
  %5 = load i64, i64* %__start.addr, align 8, !dbg !2157
  %add.ptr = getelementptr inbounds i32, i32* %4, i64 %5, !dbg !2158
  %__end_ = getelementptr inbounds %"struct.std::__1::__split_buffer", %"struct.std::__1::__split_buffer"* %this1, i32 0, i32 2, !dbg !2159
  store i32* %add.ptr, i32** %__end_, align 8, !dbg !2160
  %__begin_ = getelementptr inbounds %"struct.std::__1::__split_buffer", %"struct.std::__1::__split_buffer"* %this1, i32 0, i32 1, !dbg !2161
  store i32* %add.ptr, i32** %__begin_, align 8, !dbg !2162
  %__first_4 = getelementptr inbounds %"struct.std::__1::__split_buffer", %"struct.std::__1::__split_buffer"* %this1, i32 0, i32 0, !dbg !2163
  %6 = load i32*, i32** %__first_4, align 8, !dbg !2163
  %7 = load i64, i64* %__cap.addr, align 8, !dbg !2164
  %add.ptr5 = getelementptr inbounds i32, i32* %6, i64 %7, !dbg !2165
  %call6 = call nonnull align 8 dereferenceable(8) i32** @_ZNSt3__114__split_bufferIiRNS_9allocatorIiEEE9__end_capEv(%"struct.std::__1::__split_buffer"* nonnull align 8 dereferenceable(40) %this1) #14, !dbg !2166
  store i32* %add.ptr5, i32** %call6, align 8, !dbg !2167
  ret void, !dbg !2168
}

; Function Attrs: noinline optnone ssp uwtable
define linkonce_odr void @_ZNSt3__117__compressed_pairIPiRNS_9allocatorIiEEEC1IDnS4_EEOT_OT0_(%"class.std::__1::__compressed_pair.1"* nonnull align 8 dereferenceable(16) %this, i8** nonnull align 8 dereferenceable(8) %__t1, %"class.std::__1::allocator"* nonnull align 1 dereferenceable(1) %__t2) unnamed_addr #6 align 2 !dbg !2169 {
entry:
  %this.addr = alloca %"class.std::__1::__compressed_pair.1"*, align 8
  %__t1.addr = alloca i8**, align 8
  %__t2.addr = alloca %"class.std::__1::allocator"*, align 8
  store %"class.std::__1::__compressed_pair.1"* %this, %"class.std::__1::__compressed_pair.1"** %this.addr, align 8
  call void @llvm.dbg.declare(metadata %"class.std::__1::__compressed_pair.1"** %this.addr, metadata !2175, metadata !DIExpression()), !dbg !2176
  store i8** %__t1, i8*** %__t1.addr, align 8
  call void @llvm.dbg.declare(metadata i8*** %__t1.addr, metadata !2177, metadata !DIExpression()), !dbg !2178
  store %"class.std::__1::allocator"* %__t2, %"class.std::__1::allocator"** %__t2.addr, align 8
  call void @llvm.dbg.declare(metadata %"class.std::__1::allocator"** %__t2.addr, metadata !2179, metadata !DIExpression()), !dbg !2180
  %this1 = load %"class.std::__1::__compressed_pair.1"*, %"class.std::__1::__compressed_pair.1"** %this.addr, align 8
  %0 = load i8**, i8*** %__t1.addr, align 8, !dbg !2181
  %1 = load %"class.std::__1::allocator"*, %"class.std::__1::allocator"** %__t2.addr, align 8, !dbg !2181
  call void @_ZNSt3__117__compressed_pairIPiRNS_9allocatorIiEEEC2IDnS4_EEOT_OT0_(%"class.std::__1::__compressed_pair.1"* nonnull align 8 dereferenceable(16) %this1, i8** nonnull align 8 dereferenceable(8) %0, %"class.std::__1::allocator"* nonnull align 1 dereferenceable(1) %1), !dbg !2181
  ret void, !dbg !2182
}

; Function Attrs: mustprogress noinline optnone ssp uwtable
define linkonce_odr hidden i32* @_ZNSt3__116allocator_traitsINS_9allocatorIiEEE8allocateERS2_m(%"class.std::__1::allocator"* nonnull align 1 dereferenceable(1) %__a, i64 %__n) #3 align 2 !dbg !2183 {
entry:
  %__a.addr = alloca %"class.std::__1::allocator"*, align 8
  %__n.addr = alloca i64, align 8
  store %"class.std::__1::allocator"* %__a, %"class.std::__1::allocator"** %__a.addr, align 8
  call void @llvm.dbg.declare(metadata %"class.std::__1::allocator"** %__a.addr, metadata !2184, metadata !DIExpression()), !dbg !2185
  store i64 %__n, i64* %__n.addr, align 8
  call void @llvm.dbg.declare(metadata i64* %__n.addr, metadata !2186, metadata !DIExpression()), !dbg !2187
  %0 = load %"class.std::__1::allocator"*, %"class.std::__1::allocator"** %__a.addr, align 8, !dbg !2188
  %1 = load i64, i64* %__n.addr, align 8, !dbg !2189
  %call = call i32* @_ZNSt3__19allocatorIiE8allocateEm(%"class.std::__1::allocator"* nonnull align 1 dereferenceable(1) %0, i64 %1), !dbg !2190
  ret i32* %call, !dbg !2191
}

; Function Attrs: mustprogress noinline nounwind optnone ssp uwtable
define linkonce_odr hidden nonnull align 1 dereferenceable(1) %"class.std::__1::allocator"* @_ZNSt3__114__split_bufferIiRNS_9allocatorIiEEE7__allocEv(%"struct.std::__1::__split_buffer"* nonnull align 8 dereferenceable(40) %this) #4 align 2 !dbg !2192 {
entry:
  %this.addr = alloca %"struct.std::__1::__split_buffer"*, align 8
  store %"struct.std::__1::__split_buffer"* %this, %"struct.std::__1::__split_buffer"** %this.addr, align 8
  call void @llvm.dbg.declare(metadata %"struct.std::__1::__split_buffer"** %this.addr, metadata !2193, metadata !DIExpression()), !dbg !2194
  %this1 = load %"struct.std::__1::__split_buffer"*, %"struct.std::__1::__split_buffer"** %this.addr, align 8
  %__end_cap_ = getelementptr inbounds %"struct.std::__1::__split_buffer", %"struct.std::__1::__split_buffer"* %this1, i32 0, i32 3, !dbg !2195
  %call = call nonnull align 1 dereferenceable(1) %"class.std::__1::allocator"* @_ZNSt3__117__compressed_pairIPiRNS_9allocatorIiEEE6secondEv(%"class.std::__1::__compressed_pair.1"* nonnull align 8 dereferenceable(16) %__end_cap_) #14, !dbg !2196
  ret %"class.std::__1::allocator"* %call, !dbg !2197
}

; Function Attrs: mustprogress noinline nounwind optnone ssp uwtable
define linkonce_odr hidden nonnull align 8 dereferenceable(8) i32** @_ZNSt3__114__split_bufferIiRNS_9allocatorIiEEE9__end_capEv(%"struct.std::__1::__split_buffer"* nonnull align 8 dereferenceable(40) %this) #4 align 2 !dbg !2198 {
entry:
  %this.addr = alloca %"struct.std::__1::__split_buffer"*, align 8
  store %"struct.std::__1::__split_buffer"* %this, %"struct.std::__1::__split_buffer"** %this.addr, align 8
  call void @llvm.dbg.declare(metadata %"struct.std::__1::__split_buffer"** %this.addr, metadata !2199, metadata !DIExpression()), !dbg !2200
  %this1 = load %"struct.std::__1::__split_buffer"*, %"struct.std::__1::__split_buffer"** %this.addr, align 8
  %__end_cap_ = getelementptr inbounds %"struct.std::__1::__split_buffer", %"struct.std::__1::__split_buffer"* %this1, i32 0, i32 3, !dbg !2201
  %call = call nonnull align 8 dereferenceable(8) i32** @_ZNSt3__117__compressed_pairIPiRNS_9allocatorIiEEE5firstEv(%"class.std::__1::__compressed_pair.1"* nonnull align 8 dereferenceable(16) %__end_cap_) #14, !dbg !2202
  ret i32** %call, !dbg !2203
}

; Function Attrs: noinline optnone ssp uwtable
define linkonce_odr void @_ZNSt3__117__compressed_pairIPiRNS_9allocatorIiEEEC2IDnS4_EEOT_OT0_(%"class.std::__1::__compressed_pair.1"* nonnull align 8 dereferenceable(16) %this, i8** nonnull align 8 dereferenceable(8) %__t1, %"class.std::__1::allocator"* nonnull align 1 dereferenceable(1) %__t2) unnamed_addr #6 align 2 !dbg !2204 {
entry:
  %this.addr = alloca %"class.std::__1::__compressed_pair.1"*, align 8
  %__t1.addr = alloca i8**, align 8
  %__t2.addr = alloca %"class.std::__1::allocator"*, align 8
  store %"class.std::__1::__compressed_pair.1"* %this, %"class.std::__1::__compressed_pair.1"** %this.addr, align 8
  call void @llvm.dbg.declare(metadata %"class.std::__1::__compressed_pair.1"** %this.addr, metadata !2205, metadata !DIExpression()), !dbg !2206
  store i8** %__t1, i8*** %__t1.addr, align 8
  call void @llvm.dbg.declare(metadata i8*** %__t1.addr, metadata !2207, metadata !DIExpression()), !dbg !2208
  store %"class.std::__1::allocator"* %__t2, %"class.std::__1::allocator"** %__t2.addr, align 8
  call void @llvm.dbg.declare(metadata %"class.std::__1::allocator"** %__t2.addr, metadata !2209, metadata !DIExpression()), !dbg !2210
  %this1 = load %"class.std::__1::__compressed_pair.1"*, %"class.std::__1::__compressed_pair.1"** %this.addr, align 8
  %0 = bitcast %"class.std::__1::__compressed_pair.1"* %this1 to %"struct.std::__1::__compressed_pair_elem"*, !dbg !2211
  %1 = load i8**, i8*** %__t1.addr, align 8, !dbg !2212
  %call = call nonnull align 8 dereferenceable(8) i8** @_ZNSt3__17forwardIDnEEOT_RNS_16remove_referenceIS1_E4typeE(i8** nonnull align 8 dereferenceable(8) %1) #14, !dbg !2213
  call void @_ZNSt3__122__compressed_pair_elemIPiLi0ELb0EEC2IDnvEEOT_(%"struct.std::__1::__compressed_pair_elem"* nonnull align 8 dereferenceable(8) %0, i8** nonnull align 8 dereferenceable(8) %call), !dbg !2214
  %2 = bitcast %"class.std::__1::__compressed_pair.1"* %this1 to i8*, !dbg !2211
  %3 = getelementptr inbounds i8, i8* %2, i64 8, !dbg !2211
  %4 = bitcast i8* %3 to %"struct.std::__1::__compressed_pair_elem.2"*, !dbg !2211
  %5 = load %"class.std::__1::allocator"*, %"class.std::__1::allocator"** %__t2.addr, align 8, !dbg !2215
  %call2 = call nonnull align 1 dereferenceable(1) %"class.std::__1::allocator"* @_ZNSt3__17forwardIRNS_9allocatorIiEEEEOT_RNS_16remove_referenceIS4_E4typeE(%"class.std::__1::allocator"* nonnull align 1 dereferenceable(1) %5) #14, !dbg !2216
  call void @_ZNSt3__122__compressed_pair_elemIRNS_9allocatorIiEELi1ELb0EEC2IS3_vEEOT_(%"struct.std::__1::__compressed_pair_elem.2"* nonnull align 8 dereferenceable(8) %4, %"class.std::__1::allocator"* nonnull align 1 dereferenceable(1) %call2), !dbg !2217
  ret void, !dbg !2218
}

; Function Attrs: mustprogress noinline nounwind optnone ssp uwtable
define linkonce_odr hidden nonnull align 1 dereferenceable(1) %"class.std::__1::allocator"* @_ZNSt3__17forwardIRNS_9allocatorIiEEEEOT_RNS_16remove_referenceIS4_E4typeE(%"class.std::__1::allocator"* nonnull align 1 dereferenceable(1) %__t) #4 !dbg !2219 {
entry:
  %__t.addr = alloca %"class.std::__1::allocator"*, align 8
  store %"class.std::__1::allocator"* %__t, %"class.std::__1::allocator"** %__t.addr, align 8
  call void @llvm.dbg.declare(metadata %"class.std::__1::allocator"** %__t.addr, metadata !2223, metadata !DIExpression()), !dbg !2224
  %0 = load %"class.std::__1::allocator"*, %"class.std::__1::allocator"** %__t.addr, align 8, !dbg !2225
  ret %"class.std::__1::allocator"* %0, !dbg !2226
}

; Function Attrs: noinline nounwind optnone ssp uwtable
define linkonce_odr void @_ZNSt3__122__compressed_pair_elemIRNS_9allocatorIiEELi1ELb0EEC2IS3_vEEOT_(%"struct.std::__1::__compressed_pair_elem.2"* nonnull align 8 dereferenceable(8) %this, %"class.std::__1::allocator"* nonnull align 1 dereferenceable(1) %__u) unnamed_addr #2 align 2 !dbg !2227 {
entry:
  %this.addr = alloca %"struct.std::__1::__compressed_pair_elem.2"*, align 8
  %__u.addr = alloca %"class.std::__1::allocator"*, align 8
  store %"struct.std::__1::__compressed_pair_elem.2"* %this, %"struct.std::__1::__compressed_pair_elem.2"** %this.addr, align 8
  call void @llvm.dbg.declare(metadata %"struct.std::__1::__compressed_pair_elem.2"** %this.addr, metadata !2233, metadata !DIExpression()), !dbg !2234
  store %"class.std::__1::allocator"* %__u, %"class.std::__1::allocator"** %__u.addr, align 8
  call void @llvm.dbg.declare(metadata %"class.std::__1::allocator"** %__u.addr, metadata !2235, metadata !DIExpression()), !dbg !2236
  %this1 = load %"struct.std::__1::__compressed_pair_elem.2"*, %"struct.std::__1::__compressed_pair_elem.2"** %this.addr, align 8
  %__value_ = getelementptr inbounds %"struct.std::__1::__compressed_pair_elem.2", %"struct.std::__1::__compressed_pair_elem.2"* %this1, i32 0, i32 0, !dbg !2237
  %0 = load %"class.std::__1::allocator"*, %"class.std::__1::allocator"** %__u.addr, align 8, !dbg !2238
  %call = call nonnull align 1 dereferenceable(1) %"class.std::__1::allocator"* @_ZNSt3__17forwardIRNS_9allocatorIiEEEEOT_RNS_16remove_referenceIS4_E4typeE(%"class.std::__1::allocator"* nonnull align 1 dereferenceable(1) %0) #14, !dbg !2239
  store %"class.std::__1::allocator"* %call, %"class.std::__1::allocator"** %__value_, align 8, !dbg !2237
  ret void, !dbg !2240
}

; Function Attrs: mustprogress noinline optnone ssp uwtable
define linkonce_odr hidden i32* @_ZNSt3__19allocatorIiE8allocateEm(%"class.std::__1::allocator"* nonnull align 1 dereferenceable(1) %this, i64 %__n) #3 align 2 !dbg !2241 {
entry:
  %this.addr = alloca %"class.std::__1::allocator"*, align 8
  %__n.addr = alloca i64, align 8
  store %"class.std::__1::allocator"* %this, %"class.std::__1::allocator"** %this.addr, align 8
  call void @llvm.dbg.declare(metadata %"class.std::__1::allocator"** %this.addr, metadata !2242, metadata !DIExpression()), !dbg !2243
  store i64 %__n, i64* %__n.addr, align 8
  call void @llvm.dbg.declare(metadata i64* %__n.addr, metadata !2244, metadata !DIExpression()), !dbg !2245
  %this1 = load %"class.std::__1::allocator"*, %"class.std::__1::allocator"** %this.addr, align 8
  %0 = load i64, i64* %__n.addr, align 8, !dbg !2246
  %call = call i64 @_ZNSt3__116allocator_traitsINS_9allocatorIiEEE8max_sizeIS2_vEEmRKS2_(%"class.std::__1::allocator"* nonnull align 1 dereferenceable(1) %this1) #14, !dbg !2248
  %cmp = icmp ugt i64 %0, %call, !dbg !2249
  br i1 %cmp, label %if.then, label %if.end, !dbg !2250

if.then:                                          ; preds = %entry
  call void @_ZNSt3__120__throw_length_errorEPKc(i8* getelementptr inbounds ([68 x i8], [68 x i8]* @.str, i64 0, i64 0)) #17, !dbg !2251
  unreachable, !dbg !2251

if.end:                                           ; preds = %entry
  %1 = load i64, i64* %__n.addr, align 8, !dbg !2252
  %mul = mul i64 %1, 4, !dbg !2255
  %call2 = call i8* @_ZNSt3__117__libcpp_allocateEmm(i64 %mul, i64 4), !dbg !2256
  %2 = bitcast i8* %call2 to i32*, !dbg !2257
  ret i32* %2, !dbg !2258
}

; Function Attrs: mustprogress noinline noreturn optnone ssp uwtable
define linkonce_odr hidden void @_ZNSt3__120__throw_length_errorEPKc(i8* %__msg) #8 personality i8* bitcast (i32 (...)* @__gxx_personality_v0 to i8*) !dbg !2259 {
entry:
  %__msg.addr = alloca i8*, align 8
  %exn.slot = alloca i8*, align 8
  %ehselector.slot = alloca i32, align 4
  store i8* %__msg, i8** %__msg.addr, align 8
  call void @llvm.dbg.declare(metadata i8** %__msg.addr, metadata !2262, metadata !DIExpression()), !dbg !2263
  %exception = call i8* @__cxa_allocate_exception(i64 16) #14, !dbg !2264
  %0 = bitcast i8* %exception to %"class.std::length_error"*, !dbg !2264
  %1 = load i8*, i8** %__msg.addr, align 8, !dbg !2265
  invoke void @_ZNSt12length_errorC1EPKc(%"class.std::length_error"* nonnull align 8 dereferenceable(16) %0, i8* %1)
          to label %invoke.cont unwind label %lpad, !dbg !2266

invoke.cont:                                      ; preds = %entry
  call void @__cxa_throw(i8* %exception, i8* bitcast (i8** @_ZTISt12length_error to i8*), i8* bitcast (void (%"class.std::length_error"*)* @_ZNSt12length_errorD1Ev to i8*)) #17, !dbg !2264
  unreachable, !dbg !2264

lpad:                                             ; preds = %entry
  %2 = landingpad { i8*, i32 }
          cleanup, !dbg !2267
  %3 = extractvalue { i8*, i32 } %2, 0, !dbg !2267
  store i8* %3, i8** %exn.slot, align 8, !dbg !2267
  %4 = extractvalue { i8*, i32 } %2, 1, !dbg !2267
  store i32 %4, i32* %ehselector.slot, align 4, !dbg !2267
  call void @__cxa_free_exception(i8* %exception) #14, !dbg !2264
  br label %eh.resume, !dbg !2264

eh.resume:                                        ; preds = %lpad
  %exn = load i8*, i8** %exn.slot, align 8, !dbg !2264
  %sel = load i32, i32* %ehselector.slot, align 4, !dbg !2264
  %lpad.val = insertvalue { i8*, i32 } undef, i8* %exn, 0, !dbg !2264
  %lpad.val1 = insertvalue { i8*, i32 } %lpad.val, i32 %sel, 1, !dbg !2264
  resume { i8*, i32 } %lpad.val1, !dbg !2264
}

; Function Attrs: mustprogress noinline optnone ssp uwtable
define linkonce_odr hidden i8* @_ZNSt3__117__libcpp_allocateEmm(i64 %__size, i64 %__align) #3 !dbg !2268 {
entry:
  %__size.addr = alloca i64, align 8
  %__align.addr = alloca i64, align 8
  store i64 %__size, i64* %__size.addr, align 8
  call void @llvm.dbg.declare(metadata i64* %__size.addr, metadata !2269, metadata !DIExpression()), !dbg !2270
  store i64 %__align, i64* %__align.addr, align 8
  call void @llvm.dbg.declare(metadata i64* %__align.addr, metadata !2271, metadata !DIExpression()), !dbg !2272
  %0 = load i64, i64* %__size.addr, align 8, !dbg !2273
  %call = call i8* @_ZNSt3__121__libcpp_operator_newIJmEEEPvDpT_(i64 %0), !dbg !2274
  ret i8* %call, !dbg !2275
}

declare i8* @__cxa_allocate_exception(i64)

; Function Attrs: noinline optnone ssp uwtable
define linkonce_odr hidden void @_ZNSt12length_errorC1EPKc(%"class.std::length_error"* nonnull align 8 dereferenceable(16) %this, i8* %__s) unnamed_addr #6 align 2 !dbg !2276 {
entry:
  %this.addr = alloca %"class.std::length_error"*, align 8
  %__s.addr = alloca i8*, align 8
  store %"class.std::length_error"* %this, %"class.std::length_error"** %this.addr, align 8
  call void @llvm.dbg.declare(metadata %"class.std::length_error"** %this.addr, metadata !2277, metadata !DIExpression()), !dbg !2279
  store i8* %__s, i8** %__s.addr, align 8
  call void @llvm.dbg.declare(metadata i8** %__s.addr, metadata !2280, metadata !DIExpression()), !dbg !2281
  %this1 = load %"class.std::length_error"*, %"class.std::length_error"** %this.addr, align 8
  %0 = load i8*, i8** %__s.addr, align 8, !dbg !2282
  call void @_ZNSt12length_errorC2EPKc(%"class.std::length_error"* nonnull align 8 dereferenceable(16) %this1, i8* %0), !dbg !2282
  ret void, !dbg !2283
}

declare void @__cxa_free_exception(i8*)

; Function Attrs: nounwind
declare void @_ZNSt12length_errorD1Ev(%"class.std::length_error"* nonnull align 8 dereferenceable(16)) unnamed_addr #10

declare void @__cxa_throw(i8*, i8*, i8*)

; Function Attrs: noinline optnone ssp uwtable
define linkonce_odr hidden void @_ZNSt12length_errorC2EPKc(%"class.std::length_error"* nonnull align 8 dereferenceable(16) %this, i8* %__s) unnamed_addr #6 align 2 !dbg !2284 {
entry:
  %this.addr = alloca %"class.std::length_error"*, align 8
  %__s.addr = alloca i8*, align 8
  store %"class.std::length_error"* %this, %"class.std::length_error"** %this.addr, align 8
  call void @llvm.dbg.declare(metadata %"class.std::length_error"** %this.addr, metadata !2285, metadata !DIExpression()), !dbg !2286
  store i8* %__s, i8** %__s.addr, align 8
  call void @llvm.dbg.declare(metadata i8** %__s.addr, metadata !2287, metadata !DIExpression()), !dbg !2288
  %this1 = load %"class.std::length_error"*, %"class.std::length_error"** %this.addr, align 8
  %0 = bitcast %"class.std::length_error"* %this1 to %"class.std::logic_error"*, !dbg !2289
  %1 = load i8*, i8** %__s.addr, align 8, !dbg !2290
  call void @_ZNSt11logic_errorC2EPKc(%"class.std::logic_error"* nonnull align 8 dereferenceable(16) %0, i8* %1), !dbg !2291
  %2 = bitcast %"class.std::length_error"* %this1 to i32 (...)***, !dbg !2289
  store i32 (...)** bitcast (i8** getelementptr inbounds ({ [5 x i8*] }, { [5 x i8*] }* @_ZTVSt12length_error, i32 0, inrange i32 0, i32 2) to i32 (...)**), i32 (...)*** %2, align 8, !dbg !2289
  ret void, !dbg !2292
}

declare void @_ZNSt11logic_errorC2EPKc(%"class.std::logic_error"* nonnull align 8 dereferenceable(16), i8*) unnamed_addr #11

; Function Attrs: mustprogress noinline optnone ssp uwtable
define linkonce_odr hidden i8* @_ZNSt3__121__libcpp_operator_newIJmEEEPvDpT_(i64 %__args) #3 !dbg !2293 {
entry:
  %__args.addr = alloca i64, align 8
  store i64 %__args, i64* %__args.addr, align 8
  call void @llvm.dbg.declare(metadata i64* %__args.addr, metadata !2300, metadata !DIExpression()), !dbg !2301
  %0 = load i64, i64* %__args.addr, align 8, !dbg !2302
  %call = call noalias nonnull i8* @_Znwm(i64 %0) #18, !dbg !2303
  ret i8* %call, !dbg !2304
}

; Function Attrs: nobuiltin allocsize(0)
declare nonnull i8* @_Znwm(i64) #12

; Function Attrs: mustprogress noinline nounwind optnone ssp uwtable
define linkonce_odr hidden nonnull align 1 dereferenceable(1) %"class.std::__1::allocator"* @_ZNSt3__117__compressed_pairIPiRNS_9allocatorIiEEE6secondEv(%"class.std::__1::__compressed_pair.1"* nonnull align 8 dereferenceable(16) %this) #4 align 2 !dbg !2305 {
entry:
  %this.addr = alloca %"class.std::__1::__compressed_pair.1"*, align 8
  store %"class.std::__1::__compressed_pair.1"* %this, %"class.std::__1::__compressed_pair.1"** %this.addr, align 8
  call void @llvm.dbg.declare(metadata %"class.std::__1::__compressed_pair.1"** %this.addr, metadata !2306, metadata !DIExpression()), !dbg !2307
  %this1 = load %"class.std::__1::__compressed_pair.1"*, %"class.std::__1::__compressed_pair.1"** %this.addr, align 8
  %0 = bitcast %"class.std::__1::__compressed_pair.1"* %this1 to i8*, !dbg !2308
  %add.ptr = getelementptr inbounds i8, i8* %0, i64 8, !dbg !2308
  %1 = bitcast i8* %add.ptr to %"struct.std::__1::__compressed_pair_elem.2"*, !dbg !2308
  %call = call nonnull align 1 dereferenceable(1) %"class.std::__1::allocator"* @_ZNSt3__122__compressed_pair_elemIRNS_9allocatorIiEELi1ELb0EE5__getEv(%"struct.std::__1::__compressed_pair_elem.2"* nonnull align 8 dereferenceable(8) %1) #14, !dbg !2309
  ret %"class.std::__1::allocator"* %call, !dbg !2310
}

; Function Attrs: mustprogress noinline nounwind optnone ssp uwtable
define linkonce_odr hidden nonnull align 1 dereferenceable(1) %"class.std::__1::allocator"* @_ZNSt3__122__compressed_pair_elemIRNS_9allocatorIiEELi1ELb0EE5__getEv(%"struct.std::__1::__compressed_pair_elem.2"* nonnull align 8 dereferenceable(8) %this) #4 align 2 !dbg !2311 {
entry:
  %this.addr = alloca %"struct.std::__1::__compressed_pair_elem.2"*, align 8
  store %"struct.std::__1::__compressed_pair_elem.2"* %this, %"struct.std::__1::__compressed_pair_elem.2"** %this.addr, align 8
  call void @llvm.dbg.declare(metadata %"struct.std::__1::__compressed_pair_elem.2"** %this.addr, metadata !2312, metadata !DIExpression()), !dbg !2313
  %this1 = load %"struct.std::__1::__compressed_pair_elem.2"*, %"struct.std::__1::__compressed_pair_elem.2"** %this.addr, align 8
  %__value_ = getelementptr inbounds %"struct.std::__1::__compressed_pair_elem.2", %"struct.std::__1::__compressed_pair_elem.2"* %this1, i32 0, i32 0, !dbg !2314
  %0 = load %"class.std::__1::allocator"*, %"class.std::__1::allocator"** %__value_, align 8, !dbg !2314
  ret %"class.std::__1::allocator"* %0, !dbg !2315
}

; Function Attrs: mustprogress noinline nounwind optnone ssp uwtable
define linkonce_odr hidden nonnull align 8 dereferenceable(8) i32** @_ZNSt3__117__compressed_pairIPiRNS_9allocatorIiEEE5firstEv(%"class.std::__1::__compressed_pair.1"* nonnull align 8 dereferenceable(16) %this) #4 align 2 !dbg !2316 {
entry:
  %this.addr = alloca %"class.std::__1::__compressed_pair.1"*, align 8
  store %"class.std::__1::__compressed_pair.1"* %this, %"class.std::__1::__compressed_pair.1"** %this.addr, align 8
  call void @llvm.dbg.declare(metadata %"class.std::__1::__compressed_pair.1"** %this.addr, metadata !2317, metadata !DIExpression()), !dbg !2318
  %this1 = load %"class.std::__1::__compressed_pair.1"*, %"class.std::__1::__compressed_pair.1"** %this.addr, align 8
  %0 = bitcast %"class.std::__1::__compressed_pair.1"* %this1 to %"struct.std::__1::__compressed_pair_elem"*, !dbg !2319
  %call = call nonnull align 8 dereferenceable(8) i32** @_ZNSt3__122__compressed_pair_elemIPiLi0ELb0EE5__getEv(%"struct.std::__1::__compressed_pair_elem"* nonnull align 8 dereferenceable(8) %0) #14, !dbg !2320
  ret i32** %call, !dbg !2321
}

; Function Attrs: mustprogress noinline nounwind optnone ssp uwtable
define linkonce_odr hidden void @_ZNSt3__146__construct_backward_with_exception_guaranteesINS_9allocatorIiEEivEEvRT_PT0_S6_RS6_(%"class.std::__1::allocator"* nonnull align 1 dereferenceable(1) %0, i32* %__begin1, i32* %__end1, i32** nonnull align 8 dereferenceable(8) %__end2) #4 !dbg !2322 {
entry:
  %.addr = alloca %"class.std::__1::allocator"*, align 8
  %__begin1.addr = alloca i32*, align 8
  %__end1.addr = alloca i32*, align 8
  %__end2.addr = alloca i32**, align 8
  %_Np = alloca i64, align 8
  store %"class.std::__1::allocator"* %0, %"class.std::__1::allocator"** %.addr, align 8
  call void @llvm.dbg.declare(metadata %"class.std::__1::allocator"** %.addr, metadata !2327, metadata !DIExpression()), !dbg !2328
  store i32* %__begin1, i32** %__begin1.addr, align 8
  call void @llvm.dbg.declare(metadata i32** %__begin1.addr, metadata !2329, metadata !DIExpression()), !dbg !2330
  store i32* %__end1, i32** %__end1.addr, align 8
  call void @llvm.dbg.declare(metadata i32** %__end1.addr, metadata !2331, metadata !DIExpression()), !dbg !2332
  store i32** %__end2, i32*** %__end2.addr, align 8
  call void @llvm.dbg.declare(metadata i32*** %__end2.addr, metadata !2333, metadata !DIExpression()), !dbg !2334
  call void @llvm.dbg.declare(metadata i64* %_Np, metadata !2335, metadata !DIExpression()), !dbg !2336
  %1 = load i32*, i32** %__end1.addr, align 8, !dbg !2337
  %2 = load i32*, i32** %__begin1.addr, align 8, !dbg !2338
  %sub.ptr.lhs.cast = ptrtoint i32* %1 to i64, !dbg !2339
  %sub.ptr.rhs.cast = ptrtoint i32* %2 to i64, !dbg !2339
  %sub.ptr.sub = sub i64 %sub.ptr.lhs.cast, %sub.ptr.rhs.cast, !dbg !2339
  %sub.ptr.div = sdiv exact i64 %sub.ptr.sub, 4, !dbg !2339
  store i64 %sub.ptr.div, i64* %_Np, align 8, !dbg !2336
  %3 = load i64, i64* %_Np, align 8, !dbg !2340
  %4 = load i32**, i32*** %__end2.addr, align 8, !dbg !2341
  %5 = load i32*, i32** %4, align 8, !dbg !2342
  %idx.neg = sub i64 0, %3, !dbg !2342
  %add.ptr = getelementptr inbounds i32, i32* %5, i64 %idx.neg, !dbg !2342
  store i32* %add.ptr, i32** %4, align 8, !dbg !2342
  %6 = load i64, i64* %_Np, align 8, !dbg !2343
  %cmp = icmp sgt i64 %6, 0, !dbg !2345
  br i1 %cmp, label %if.then, label %if.end, !dbg !2346

if.then:                                          ; preds = %entry
  %7 = load i32**, i32*** %__end2.addr, align 8, !dbg !2347
  %8 = load i32*, i32** %7, align 8, !dbg !2347
  %9 = bitcast i32* %8 to i8*, !dbg !2347
  %10 = load i32*, i32** %__begin1.addr, align 8, !dbg !2348
  %11 = bitcast i32* %10 to i8*, !dbg !2348
  %12 = load i64, i64* %_Np, align 8, !dbg !2349
  %mul = mul i64 %12, 4, !dbg !2350
  call void @llvm.memcpy.p0i8.p0i8.i64(i8* align 1 %9, i8* align 1 %11, i64 %mul, i1 false), !dbg !2351
  br label %if.end, !dbg !2351

if.end:                                           ; preds = %if.then, %entry
  ret void, !dbg !2352
}

; Function Attrs: mustprogress noinline nounwind optnone ssp uwtable
define linkonce_odr hidden void @_ZNSt3__14swapIPiEENS_9enable_ifIXaasr21is_move_constructibleIT_EE5valuesr18is_move_assignableIS3_EE5valueEvE4typeERS3_S6_(i32** nonnull align 8 dereferenceable(8) %__x, i32** nonnull align 8 dereferenceable(8) %__y) #4 !dbg !2353 {
entry:
  %__x.addr = alloca i32**, align 8
  %__y.addr = alloca i32**, align 8
  %__t = alloca i32*, align 8
  store i32** %__x, i32*** %__x.addr, align 8
  call void @llvm.dbg.declare(metadata i32*** %__x.addr, metadata !2363, metadata !DIExpression()), !dbg !2364
  store i32** %__y, i32*** %__y.addr, align 8
  call void @llvm.dbg.declare(metadata i32*** %__y.addr, metadata !2365, metadata !DIExpression()), !dbg !2366
  call void @llvm.dbg.declare(metadata i32** %__t, metadata !2367, metadata !DIExpression()), !dbg !2368
  %0 = load i32**, i32*** %__x.addr, align 8, !dbg !2369
  %call = call nonnull align 8 dereferenceable(8) i32** @_ZNSt3__14moveIRPiEEONS_16remove_referenceIT_E4typeEOS4_(i32** nonnull align 8 dereferenceable(8) %0) #14, !dbg !2370
  %1 = load i32*, i32** %call, align 8, !dbg !2370
  store i32* %1, i32** %__t, align 8, !dbg !2368
  %2 = load i32**, i32*** %__y.addr, align 8, !dbg !2371
  %call1 = call nonnull align 8 dereferenceable(8) i32** @_ZNSt3__14moveIRPiEEONS_16remove_referenceIT_E4typeEOS4_(i32** nonnull align 8 dereferenceable(8) %2) #14, !dbg !2372
  %3 = load i32*, i32** %call1, align 8, !dbg !2372
  %4 = load i32**, i32*** %__x.addr, align 8, !dbg !2373
  store i32* %3, i32** %4, align 8, !dbg !2374
  %call2 = call nonnull align 8 dereferenceable(8) i32** @_ZNSt3__14moveIRPiEEONS_16remove_referenceIT_E4typeEOS4_(i32** nonnull align 8 dereferenceable(8) %__t) #14, !dbg !2375
  %5 = load i32*, i32** %call2, align 8, !dbg !2375
  %6 = load i32**, i32*** %__y.addr, align 8, !dbg !2376
  store i32* %5, i32** %6, align 8, !dbg !2377
  ret void, !dbg !2378
}

; Function Attrs: mustprogress noinline nounwind optnone ssp uwtable
define linkonce_odr hidden void @_ZNKSt3__16vectorIiNS_9allocatorIiEEE14__annotate_newEm(%"class.std::__1::vector"* nonnull align 8 dereferenceable(24) %this, i64 %__current_size) #4 align 2 !dbg !2379 {
entry:
  %this.addr = alloca %"class.std::__1::vector"*, align 8
  %__current_size.addr = alloca i64, align 8
  store %"class.std::__1::vector"* %this, %"class.std::__1::vector"** %this.addr, align 8
  call void @llvm.dbg.declare(metadata %"class.std::__1::vector"** %this.addr, metadata !2380, metadata !DIExpression()), !dbg !2381
  store i64 %__current_size, i64* %__current_size.addr, align 8
  call void @llvm.dbg.declare(metadata i64* %__current_size.addr, metadata !2382, metadata !DIExpression()), !dbg !2383
  %this1 = load %"class.std::__1::vector"*, %"class.std::__1::vector"** %this.addr, align 8
  %call = call i32* @_ZNKSt3__16vectorIiNS_9allocatorIiEEE4dataEv(%"class.std::__1::vector"* nonnull align 8 dereferenceable(24) %this1) #14, !dbg !2384
  %0 = bitcast i32* %call to i8*, !dbg !2384
  %call2 = call i32* @_ZNKSt3__16vectorIiNS_9allocatorIiEEE4dataEv(%"class.std::__1::vector"* nonnull align 8 dereferenceable(24) %this1) #14, !dbg !2385
  %call3 = call i64 @_ZNKSt3__16vectorIiNS_9allocatorIiEEE8capacityEv(%"class.std::__1::vector"* nonnull align 8 dereferenceable(24) %this1) #14, !dbg !2386
  %add.ptr = getelementptr inbounds i32, i32* %call2, i64 %call3, !dbg !2387
  %1 = bitcast i32* %add.ptr to i8*, !dbg !2385
  %call4 = call i32* @_ZNKSt3__16vectorIiNS_9allocatorIiEEE4dataEv(%"class.std::__1::vector"* nonnull align 8 dereferenceable(24) %this1) #14, !dbg !2388
  %call5 = call i64 @_ZNKSt3__16vectorIiNS_9allocatorIiEEE8capacityEv(%"class.std::__1::vector"* nonnull align 8 dereferenceable(24) %this1) #14, !dbg !2389
  %add.ptr6 = getelementptr inbounds i32, i32* %call4, i64 %call5, !dbg !2390
  %2 = bitcast i32* %add.ptr6 to i8*, !dbg !2388
  %call7 = call i32* @_ZNKSt3__16vectorIiNS_9allocatorIiEEE4dataEv(%"class.std::__1::vector"* nonnull align 8 dereferenceable(24) %this1) #14, !dbg !2391
  %3 = load i64, i64* %__current_size.addr, align 8, !dbg !2392
  %add.ptr8 = getelementptr inbounds i32, i32* %call7, i64 %3, !dbg !2393
  %4 = bitcast i32* %add.ptr8 to i8*, !dbg !2391
  call void @_ZNKSt3__16vectorIiNS_9allocatorIiEEE31__annotate_contiguous_containerEPKvS5_S5_S5_(%"class.std::__1::vector"* nonnull align 8 dereferenceable(24) %this1, i8* %0, i8* %1, i8* %2, i8* %4) #14, !dbg !2394
  ret void, !dbg !2395
}

; Function Attrs: mustprogress noinline nounwind optnone ssp uwtable
define linkonce_odr hidden void @_ZNSt3__16vectorIiNS_9allocatorIiEEE26__invalidate_all_iteratorsEv(%"class.std::__1::vector"* nonnull align 8 dereferenceable(24) %this) #4 align 2 !dbg !2396 {
entry:
  %this.addr = alloca %"class.std::__1::vector"*, align 8
  store %"class.std::__1::vector"* %this, %"class.std::__1::vector"** %this.addr, align 8
  call void @llvm.dbg.declare(metadata %"class.std::__1::vector"** %this.addr, metadata !2397, metadata !DIExpression()), !dbg !2398
  %this1 = load %"class.std::__1::vector"*, %"class.std::__1::vector"** %this.addr, align 8
  ret void, !dbg !2399
}

; Function Attrs: argmemonly nofree nounwind willreturn
declare void @llvm.memcpy.p0i8.p0i8.i64(i8* noalias nocapture writeonly, i8* noalias nocapture readonly, i64, i1 immarg) #13

; Function Attrs: mustprogress noinline nounwind optnone ssp uwtable
define linkonce_odr hidden nonnull align 8 dereferenceable(8) i32** @_ZNSt3__14moveIRPiEEONS_16remove_referenceIT_E4typeEOS4_(i32** nonnull align 8 dereferenceable(8) %__t) #4 !dbg !2400 {
entry:
  %__t.addr = alloca i32**, align 8
  store i32** %__t, i32*** %__t.addr, align 8
  call void @llvm.dbg.declare(metadata i32*** %__t.addr, metadata !2407, metadata !DIExpression()), !dbg !2408
  %0 = load i32**, i32*** %__t.addr, align 8, !dbg !2409
  ret i32** %0, !dbg !2410
}

; Function Attrs: noinline nounwind optnone ssp uwtable
define linkonce_odr void @_ZNSt3__114__split_bufferIiRNS_9allocatorIiEEED2Ev(%"struct.std::__1::__split_buffer"* nonnull align 8 dereferenceable(40) %this) unnamed_addr #2 align 2 personality i8* bitcast (i32 (...)* @__gxx_personality_v0 to i8*) !dbg !2411 {
entry:
  %this.addr = alloca %"struct.std::__1::__split_buffer"*, align 8
  store %"struct.std::__1::__split_buffer"* %this, %"struct.std::__1::__split_buffer"** %this.addr, align 8
  call void @llvm.dbg.declare(metadata %"struct.std::__1::__split_buffer"** %this.addr, metadata !2412, metadata !DIExpression()), !dbg !2413
  %this1 = load %"struct.std::__1::__split_buffer"*, %"struct.std::__1::__split_buffer"** %this.addr, align 8
  call void @_ZNSt3__114__split_bufferIiRNS_9allocatorIiEEE5clearEv(%"struct.std::__1::__split_buffer"* nonnull align 8 dereferenceable(40) %this1) #14, !dbg !2414
  %__first_ = getelementptr inbounds %"struct.std::__1::__split_buffer", %"struct.std::__1::__split_buffer"* %this1, i32 0, i32 0, !dbg !2416
  %0 = load i32*, i32** %__first_, align 8, !dbg !2416
  %tobool = icmp ne i32* %0, null, !dbg !2416
  br i1 %tobool, label %if.then, label %if.end, !dbg !2418

if.then:                                          ; preds = %entry
  %call = call nonnull align 1 dereferenceable(1) %"class.std::__1::allocator"* @_ZNSt3__114__split_bufferIiRNS_9allocatorIiEEE7__allocEv(%"struct.std::__1::__split_buffer"* nonnull align 8 dereferenceable(40) %this1) #14, !dbg !2419
  %__first_2 = getelementptr inbounds %"struct.std::__1::__split_buffer", %"struct.std::__1::__split_buffer"* %this1, i32 0, i32 0, !dbg !2420
  %1 = load i32*, i32** %__first_2, align 8, !dbg !2420
  %call3 = invoke i64 @_ZNKSt3__114__split_bufferIiRNS_9allocatorIiEEE8capacityEv(%"struct.std::__1::__split_buffer"* nonnull align 8 dereferenceable(40) %this1)
          to label %invoke.cont unwind label %terminate.lpad, !dbg !2421

invoke.cont:                                      ; preds = %if.then
  call void @_ZNSt3__116allocator_traitsINS_9allocatorIiEEE10deallocateERS2_Pim(%"class.std::__1::allocator"* nonnull align 1 dereferenceable(1) %call, i32* %1, i64 %call3) #14, !dbg !2422
  br label %if.end, !dbg !2422

if.end:                                           ; preds = %invoke.cont, %entry
  ret void, !dbg !2423

terminate.lpad:                                   ; preds = %if.then
  %2 = landingpad { i8*, i32 }
          catch i8* null, !dbg !2421
  %3 = extractvalue { i8*, i32 } %2, 0, !dbg !2421
  call void @__clang_call_terminate(i8* %3) #15, !dbg !2421
  unreachable, !dbg !2421
}

; Function Attrs: mustprogress noinline nounwind optnone ssp uwtable
define linkonce_odr hidden void @_ZNSt3__114__split_bufferIiRNS_9allocatorIiEEE5clearEv(%"struct.std::__1::__split_buffer"* nonnull align 8 dereferenceable(40) %this) #4 align 2 !dbg !2424 {
entry:
  %this.addr = alloca %"struct.std::__1::__split_buffer"*, align 8
  store %"struct.std::__1::__split_buffer"* %this, %"struct.std::__1::__split_buffer"** %this.addr, align 8
  call void @llvm.dbg.declare(metadata %"struct.std::__1::__split_buffer"** %this.addr, metadata !2425, metadata !DIExpression()), !dbg !2426
  %this1 = load %"struct.std::__1::__split_buffer"*, %"struct.std::__1::__split_buffer"** %this.addr, align 8
  %__begin_ = getelementptr inbounds %"struct.std::__1::__split_buffer", %"struct.std::__1::__split_buffer"* %this1, i32 0, i32 1, !dbg !2427
  %0 = load i32*, i32** %__begin_, align 8, !dbg !2427
  call void @_ZNSt3__114__split_bufferIiRNS_9allocatorIiEEE17__destruct_at_endEPi(%"struct.std::__1::__split_buffer"* nonnull align 8 dereferenceable(40) %this1, i32* %0) #14, !dbg !2428
  ret void, !dbg !2429
}

; Function Attrs: mustprogress noinline nounwind optnone ssp uwtable
define linkonce_odr hidden i64 @_ZNKSt3__114__split_bufferIiRNS_9allocatorIiEEE8capacityEv(%"struct.std::__1::__split_buffer"* nonnull align 8 dereferenceable(40) %this) #4 align 2 !dbg !2430 {
entry:
  %this.addr = alloca %"struct.std::__1::__split_buffer"*, align 8
  store %"struct.std::__1::__split_buffer"* %this, %"struct.std::__1::__split_buffer"** %this.addr, align 8
  call void @llvm.dbg.declare(metadata %"struct.std::__1::__split_buffer"** %this.addr, metadata !2431, metadata !DIExpression()), !dbg !2433
  %this1 = load %"struct.std::__1::__split_buffer"*, %"struct.std::__1::__split_buffer"** %this.addr, align 8
  %call = call nonnull align 8 dereferenceable(8) i32** @_ZNKSt3__114__split_bufferIiRNS_9allocatorIiEEE9__end_capEv(%"struct.std::__1::__split_buffer"* nonnull align 8 dereferenceable(40) %this1) #14, !dbg !2434
  %0 = load i32*, i32** %call, align 8, !dbg !2434
  %__first_ = getelementptr inbounds %"struct.std::__1::__split_buffer", %"struct.std::__1::__split_buffer"* %this1, i32 0, i32 0, !dbg !2435
  %1 = load i32*, i32** %__first_, align 8, !dbg !2435
  %sub.ptr.lhs.cast = ptrtoint i32* %0 to i64, !dbg !2436
  %sub.ptr.rhs.cast = ptrtoint i32* %1 to i64, !dbg !2436
  %sub.ptr.sub = sub i64 %sub.ptr.lhs.cast, %sub.ptr.rhs.cast, !dbg !2436
  %sub.ptr.div = sdiv exact i64 %sub.ptr.sub, 4, !dbg !2436
  ret i64 %sub.ptr.div, !dbg !2437
}

; Function Attrs: mustprogress noinline nounwind optnone ssp uwtable
define linkonce_odr hidden void @_ZNSt3__114__split_bufferIiRNS_9allocatorIiEEE17__destruct_at_endEPi(%"struct.std::__1::__split_buffer"* nonnull align 8 dereferenceable(40) %this, i32* %__new_last) #4 align 2 !dbg !2438 {
entry:
  %this.addr = alloca %"struct.std::__1::__split_buffer"*, align 8
  %__new_last.addr = alloca i32*, align 8
  %agg.tmp = alloca %"struct.std::__1::integral_constant", align 1
  store %"struct.std::__1::__split_buffer"* %this, %"struct.std::__1::__split_buffer"** %this.addr, align 8
  call void @llvm.dbg.declare(metadata %"struct.std::__1::__split_buffer"** %this.addr, metadata !2439, metadata !DIExpression()), !dbg !2440
  store i32* %__new_last, i32** %__new_last.addr, align 8
  call void @llvm.dbg.declare(metadata i32** %__new_last.addr, metadata !2441, metadata !DIExpression()), !dbg !2442
  %this1 = load %"struct.std::__1::__split_buffer"*, %"struct.std::__1::__split_buffer"** %this.addr, align 8
  %0 = load i32*, i32** %__new_last.addr, align 8, !dbg !2443
  call void @_ZNSt3__114__split_bufferIiRNS_9allocatorIiEEE17__destruct_at_endEPiNS_17integral_constantIbLb0EEE(%"struct.std::__1::__split_buffer"* nonnull align 8 dereferenceable(40) %this1, i32* %0) #14, !dbg !2444
  ret void, !dbg !2445
}

; Function Attrs: mustprogress noinline nounwind optnone ssp uwtable
define linkonce_odr hidden void @_ZNSt3__114__split_bufferIiRNS_9allocatorIiEEE17__destruct_at_endEPiNS_17integral_constantIbLb0EEE(%"struct.std::__1::__split_buffer"* nonnull align 8 dereferenceable(40) %this, i32* %__new_last) #4 align 2 personality i8* bitcast (i32 (...)* @__gxx_personality_v0 to i8*) !dbg !2446 {
entry:
  %0 = alloca %"struct.std::__1::integral_constant", align 1
  %this.addr = alloca %"struct.std::__1::__split_buffer"*, align 8
  %__new_last.addr = alloca i32*, align 8
  store %"struct.std::__1::__split_buffer"* %this, %"struct.std::__1::__split_buffer"** %this.addr, align 8
  call void @llvm.dbg.declare(metadata %"struct.std::__1::__split_buffer"** %this.addr, metadata !2447, metadata !DIExpression()), !dbg !2448
  store i32* %__new_last, i32** %__new_last.addr, align 8
  call void @llvm.dbg.declare(metadata i32** %__new_last.addr, metadata !2449, metadata !DIExpression()), !dbg !2450
  call void @llvm.dbg.declare(metadata %"struct.std::__1::integral_constant"* %0, metadata !2451, metadata !DIExpression()), !dbg !2452
  %this1 = load %"struct.std::__1::__split_buffer"*, %"struct.std::__1::__split_buffer"** %this.addr, align 8
  br label %while.cond, !dbg !2453

while.cond:                                       ; preds = %invoke.cont, %entry
  %1 = load i32*, i32** %__new_last.addr, align 8, !dbg !2454
  %__end_ = getelementptr inbounds %"struct.std::__1::__split_buffer", %"struct.std::__1::__split_buffer"* %this1, i32 0, i32 2, !dbg !2455
  %2 = load i32*, i32** %__end_, align 8, !dbg !2455
  %cmp = icmp ne i32* %1, %2, !dbg !2456
  br i1 %cmp, label %while.body, label %while.end, !dbg !2453

while.body:                                       ; preds = %while.cond
  %call = call nonnull align 1 dereferenceable(1) %"class.std::__1::allocator"* @_ZNSt3__114__split_bufferIiRNS_9allocatorIiEEE7__allocEv(%"struct.std::__1::__split_buffer"* nonnull align 8 dereferenceable(40) %this1) #14, !dbg !2457
  %__end_2 = getelementptr inbounds %"struct.std::__1::__split_buffer", %"struct.std::__1::__split_buffer"* %this1, i32 0, i32 2, !dbg !2458
  %3 = load i32*, i32** %__end_2, align 8, !dbg !2459
  %incdec.ptr = getelementptr inbounds i32, i32* %3, i32 -1, !dbg !2459
  store i32* %incdec.ptr, i32** %__end_2, align 8, !dbg !2459
  %call3 = call i32* @_ZNSt3__112__to_addressIiEEPT_S2_(i32* %incdec.ptr) #14, !dbg !2460
  invoke void @_ZNSt3__116allocator_traitsINS_9allocatorIiEEE7destroyIivEEvRS2_PT_(%"class.std::__1::allocator"* nonnull align 1 dereferenceable(1) %call, i32* %call3)
          to label %invoke.cont unwind label %terminate.lpad, !dbg !2461

invoke.cont:                                      ; preds = %while.body
  br label %while.cond, !dbg !2453, !llvm.loop !2462

while.end:                                        ; preds = %while.cond
  ret void, !dbg !2464

terminate.lpad:                                   ; preds = %while.body
  %4 = landingpad { i8*, i32 }
          catch i8* null, !dbg !2461
  %5 = extractvalue { i8*, i32 } %4, 0, !dbg !2461
  call void @__clang_call_terminate(i8* %5) #15, !dbg !2461
  unreachable, !dbg !2461
}

; Function Attrs: mustprogress noinline nounwind optnone ssp uwtable
define linkonce_odr hidden nonnull align 8 dereferenceable(8) i32** @_ZNKSt3__114__split_bufferIiRNS_9allocatorIiEEE9__end_capEv(%"struct.std::__1::__split_buffer"* nonnull align 8 dereferenceable(40) %this) #4 align 2 !dbg !2465 {
entry:
  %this.addr = alloca %"struct.std::__1::__split_buffer"*, align 8
  store %"struct.std::__1::__split_buffer"* %this, %"struct.std::__1::__split_buffer"** %this.addr, align 8
  call void @llvm.dbg.declare(metadata %"struct.std::__1::__split_buffer"** %this.addr, metadata !2466, metadata !DIExpression()), !dbg !2467
  %this1 = load %"struct.std::__1::__split_buffer"*, %"struct.std::__1::__split_buffer"** %this.addr, align 8
  %__end_cap_ = getelementptr inbounds %"struct.std::__1::__split_buffer", %"struct.std::__1::__split_buffer"* %this1, i32 0, i32 3, !dbg !2468
  %call = call nonnull align 8 dereferenceable(8) i32** @_ZNKSt3__117__compressed_pairIPiRNS_9allocatorIiEEE5firstEv(%"class.std::__1::__compressed_pair.1"* nonnull align 8 dereferenceable(16) %__end_cap_) #14, !dbg !2469
  ret i32** %call, !dbg !2470
}

; Function Attrs: mustprogress noinline nounwind optnone ssp uwtable
define linkonce_odr hidden nonnull align 8 dereferenceable(8) i32** @_ZNKSt3__117__compressed_pairIPiRNS_9allocatorIiEEE5firstEv(%"class.std::__1::__compressed_pair.1"* nonnull align 8 dereferenceable(16) %this) #4 align 2 !dbg !2471 {
entry:
  %this.addr = alloca %"class.std::__1::__compressed_pair.1"*, align 8
  store %"class.std::__1::__compressed_pair.1"* %this, %"class.std::__1::__compressed_pair.1"** %this.addr, align 8
  call void @llvm.dbg.declare(metadata %"class.std::__1::__compressed_pair.1"** %this.addr, metadata !2472, metadata !DIExpression()), !dbg !2474
  %this1 = load %"class.std::__1::__compressed_pair.1"*, %"class.std::__1::__compressed_pair.1"** %this.addr, align 8
  %0 = bitcast %"class.std::__1::__compressed_pair.1"* %this1 to %"struct.std::__1::__compressed_pair_elem"*, !dbg !2475
  %call = call nonnull align 8 dereferenceable(8) i32** @_ZNKSt3__122__compressed_pair_elemIPiLi0ELb0EE5__getEv(%"struct.std::__1::__compressed_pair_elem"* nonnull align 8 dereferenceable(8) %0) #14, !dbg !2476
  ret i32** %call, !dbg !2477
}

attributes #0 = { mustprogress noinline norecurse optnone ssp uwtable "frame-pointer"="all" "min-legal-vector-width"="0" "no-trapping-math"="true" "stack-protector-buffer-size"="8" "target-cpu"="penryn" "target-features"="+cx16,+cx8,+fxsr,+mmx,+sahf,+sse,+sse2,+sse3,+sse4.1,+ssse3,+x87" "tune-cpu"="generic" }
attributes #1 = { nofree nosync nounwind readnone speculatable willreturn }
attributes #2 = { noinline nounwind optnone ssp uwtable "frame-pointer"="all" "min-legal-vector-width"="0" "no-trapping-math"="true" "stack-protector-buffer-size"="8" "target-cpu"="penryn" "target-features"="+cx16,+cx8,+fxsr,+mmx,+sahf,+sse,+sse2,+sse3,+sse4.1,+ssse3,+x87" "tune-cpu"="generic" }
attributes #3 = { mustprogress noinline optnone ssp uwtable "frame-pointer"="all" "min-legal-vector-width"="0" "no-trapping-math"="true" "stack-protector-buffer-size"="8" "target-cpu"="penryn" "target-features"="+cx16,+cx8,+fxsr,+mmx,+sahf,+sse,+sse2,+sse3,+sse4.1,+ssse3,+x87" "tune-cpu"="generic" }
attributes #4 = { mustprogress noinline nounwind optnone ssp uwtable "frame-pointer"="all" "min-legal-vector-width"="0" "no-trapping-math"="true" "stack-protector-buffer-size"="8" "target-cpu"="penryn" "target-features"="+cx16,+cx8,+fxsr,+mmx,+sahf,+sse,+sse2,+sse3,+sse4.1,+ssse3,+x87" "tune-cpu"="generic" }
attributes #5 = { noinline noreturn nounwind }
attributes #6 = { noinline optnone ssp uwtable "frame-pointer"="all" "min-legal-vector-width"="0" "no-trapping-math"="true" "stack-protector-buffer-size"="8" "target-cpu"="penryn" "target-features"="+cx16,+cx8,+fxsr,+mmx,+sahf,+sse,+sse2,+sse3,+sse4.1,+ssse3,+x87" "tune-cpu"="generic" }
attributes #7 = { nobuiltin nounwind "frame-pointer"="all" "no-trapping-math"="true" "stack-protector-buffer-size"="8" "target-cpu"="penryn" "target-features"="+cx16,+cx8,+fxsr,+mmx,+sahf,+sse,+sse2,+sse3,+sse4.1,+ssse3,+x87" "tune-cpu"="generic" }
attributes #8 = { mustprogress noinline noreturn optnone ssp uwtable "frame-pointer"="all" "min-legal-vector-width"="0" "no-trapping-math"="true" "stack-protector-buffer-size"="8" "target-cpu"="penryn" "target-features"="+cx16,+cx8,+fxsr,+mmx,+sahf,+sse,+sse2,+sse3,+sse4.1,+ssse3,+x87" "tune-cpu"="generic" }
attributes #9 = { noreturn "frame-pointer"="all" "no-trapping-math"="true" "stack-protector-buffer-size"="8" "target-cpu"="penryn" "target-features"="+cx16,+cx8,+fxsr,+mmx,+sahf,+sse,+sse2,+sse3,+sse4.1,+ssse3,+x87" "tune-cpu"="generic" }
attributes #10 = { nounwind "frame-pointer"="all" "no-trapping-math"="true" "stack-protector-buffer-size"="8" "target-cpu"="penryn" "target-features"="+cx16,+cx8,+fxsr,+mmx,+sahf,+sse,+sse2,+sse3,+sse4.1,+ssse3,+x87" "tune-cpu"="generic" }
attributes #11 = { "frame-pointer"="all" "no-trapping-math"="true" "stack-protector-buffer-size"="8" "target-cpu"="penryn" "target-features"="+cx16,+cx8,+fxsr,+mmx,+sahf,+sse,+sse2,+sse3,+sse4.1,+ssse3,+x87" "tune-cpu"="generic" }
attributes #12 = { nobuiltin allocsize(0) "frame-pointer"="all" "no-trapping-math"="true" "stack-protector-buffer-size"="8" "target-cpu"="penryn" "target-features"="+cx16,+cx8,+fxsr,+mmx,+sahf,+sse,+sse2,+sse3,+sse4.1,+ssse3,+x87" "tune-cpu"="generic" }
attributes #13 = { argmemonly nofree nounwind willreturn }
attributes #14 = { nounwind }
attributes #15 = { noreturn nounwind }
attributes #16 = { builtin nounwind }
attributes #17 = { noreturn }
attributes #18 = { builtin allocsize(0) }

!llvm.module.flags = !{!0, !1, !2, !3, !4, !5, !6}
!llvm.dbg.cu = !{!7}
!llvm.ident = !{!1303}

!0 = !{i32 2, !"SDK Version", [2 x i32] [i32 12, i32 1]}
!1 = !{i32 7, !"Dwarf Version", i32 4}
!2 = !{i32 2, !"Debug Info Version", i32 3}
!3 = !{i32 1, !"wchar_size", i32 4}
!4 = !{i32 7, !"PIC Level", i32 2}
!5 = !{i32 7, !"uwtable", i32 1}
!6 = !{i32 7, !"frame-pointer", i32 2}
!7 = distinct !DICompileUnit(language: DW_LANG_C_plus_plus_14, file: !8, producer: "clang version 13.0.0", isOptimized: false, runtimeVersion: 0, emissionKind: FullDebug, enums: !9, retainedTypes: !26, imports: !897, splitDebugInlining: false, nameTableKind: None, sysroot: "/Library/Developer/CommandLineTools/SDKs/MacOSX.sdk", sdk: "MacOSX.sdk")
!8 = !DIFile(filename: "src/test_etc.cpp", directory: "/Users/ichang-yul/Desktop/SVF_Practice/testfiles")
!9 = !{!10, !19}
!10 = !DICompositeType(tag: DW_TAG_enumeration_type, name: "float_denorm_style", scope: !12, file: !11, line: 135, baseType: !14, size: 32, elements: !15, identifier: "_ZTSNSt3__118float_denorm_styleE")
!11 = !DIFile(filename: "SVF/llvm-13.0.0.obj/bin/../include/c++/v1/limits", directory: "/Users/ichang-yul/Desktop")
!12 = !DINamespace(name: "__1", scope: !13, exportSymbols: true)
!13 = !DINamespace(name: "std", scope: null)
!14 = !DIBasicType(name: "int", size: 32, encoding: DW_ATE_signed)
!15 = !{!16, !17, !18}
!16 = !DIEnumerator(name: "denorm_indeterminate", value: -1)
!17 = !DIEnumerator(name: "denorm_absent", value: 0)
!18 = !DIEnumerator(name: "denorm_present", value: 1)
!19 = !DICompositeType(tag: DW_TAG_enumeration_type, name: "float_round_style", scope: !12, file: !11, line: 126, baseType: !14, size: 32, elements: !20, identifier: "_ZTSNSt3__117float_round_styleE")
!20 = !{!21, !22, !23, !24, !25}
!21 = !DIEnumerator(name: "round_indeterminate", value: -1)
!22 = !DIEnumerator(name: "round_toward_zero", value: 0)
!23 = !DIEnumerator(name: "round_to_nearest", value: 1)
!24 = !DIEnumerator(name: "round_toward_infinity", value: 2)
!25 = !DIEnumerator(name: "round_toward_neg_infinity", value: 3)
!26 = !{!27, !314, !749, !109, !78, !750, !104, !635, !852}
!27 = !DIDerivedType(tag: DW_TAG_typedef, name: "size_type", scope: !29, file: !28, line: 336, baseType: !115)
!28 = !DIFile(filename: "SVF/llvm-13.0.0.obj/bin/../include/c++/v1/vector", directory: "/Users/ichang-yul/Desktop")
!29 = distinct !DICompositeType(tag: DW_TAG_class_type, name: "__vector_base<int, std::__1::allocator<int> >", scope: !12, file: !28, line: 330, size: 192, flags: DIFlagTypePassByReference | DIFlagNonTrivial, elements: !30, templateParams: !312, identifier: "_ZTSNSt3__113__vector_baseIiNS_9allocatorIiEEEE")
!30 = !{!31, !47, !122, !123, !219, !225, !232, !236, !241, !244, !247, !251, !252, !253, !256, !259, !263, !267, !270, !271, !290, !306, !309}
!31 = !DIDerivedType(tag: DW_TAG_inheritance, scope: !29, baseType: !32, flags: DIFlagProtected, extraData: i32 0)
!32 = distinct !DICompositeType(tag: DW_TAG_class_type, name: "__vector_base_common<true>", scope: !12, file: !28, line: 327, size: 8, flags: DIFlagTypePassByValue | DIFlagNonTrivial, elements: !33, templateParams: !44, identifier: "_ZTSNSt3__120__vector_base_commonILb1EEE")
!33 = !{!34, !38, !43}
!34 = !DISubprogram(name: "__vector_base_common", scope: !32, file: !28, line: 308, type: !35, scopeLine: 308, flags: DIFlagProtected | DIFlagPrototyped, spFlags: 0)
!35 = !DISubroutineType(types: !36)
!36 = !{null, !37}
!37 = !DIDerivedType(tag: DW_TAG_pointer_type, baseType: !32, size: 64, flags: DIFlagArtificial | DIFlagObjectPointer)
!38 = !DISubprogram(name: "__throw_length_error", linkageName: "_ZNKSt3__120__vector_base_commonILb1EE20__throw_length_errorEv", scope: !32, file: !28, line: 309, type: !39, scopeLine: 309, flags: DIFlagProtected | DIFlagPrototyped | DIFlagNoReturn, spFlags: 0)
!39 = !DISubroutineType(types: !40)
!40 = !{null, !41}
!41 = !DIDerivedType(tag: DW_TAG_pointer_type, baseType: !42, size: 64, flags: DIFlagArtificial | DIFlagObjectPointer)
!42 = !DIDerivedType(tag: DW_TAG_const_type, baseType: !32)
!43 = !DISubprogram(name: "__throw_out_of_range", linkageName: "_ZNKSt3__120__vector_base_commonILb1EE20__throw_out_of_rangeEv", scope: !32, file: !28, line: 310, type: !39, scopeLine: 310, flags: DIFlagProtected | DIFlagPrototyped | DIFlagNoReturn, spFlags: 0)
!44 = !{!45}
!45 = !DITemplateValueParameter(type: !46, value: i8 1)
!46 = !DIBasicType(name: "bool", size: 8, encoding: DW_ATE_boolean)
!47 = !DIDerivedType(tag: DW_TAG_member, name: "__begin_", scope: !29, file: !28, line: 347, baseType: !48, size: 64, flags: DIFlagProtected)
!48 = !DIDerivedType(tag: DW_TAG_typedef, name: "pointer", scope: !29, file: !28, line: 342, baseType: !49)
!49 = !DIDerivedType(tag: DW_TAG_typedef, name: "pointer", scope: !51, file: !50, line: 233, baseType: !88)
!50 = !DIFile(filename: "SVF/llvm-13.0.0.obj/bin/../include/c++/v1/__memory/allocator_traits.h", directory: "/Users/ichang-yul/Desktop")
!51 = distinct !DICompositeType(tag: DW_TAG_structure_type, name: "allocator_traits<std::__1::allocator<int> >", scope: !12, file: !50, line: 229, size: 8, flags: DIFlagTypePassByValue, elements: !52, templateParams: !120, identifier: "_ZTSNSt3__116allocator_traitsINS_9allocatorIiEEEE")
!52 = !{!53, !117}
!53 = !DISubprogram(name: "allocate", linkageName: "_ZNSt3__116allocator_traitsINS_9allocatorIiEEE8allocateERS2_m", scope: !51, file: !50, line: 261, type: !54, scopeLine: 261, flags: DIFlagPrototyped | DIFlagStaticMember, spFlags: 0)
!54 = !DISubroutineType(types: !55)
!55 = !{!49, !56, !115}
!56 = !DIDerivedType(tag: DW_TAG_reference_type, baseType: !57, size: 64)
!57 = !DIDerivedType(tag: DW_TAG_typedef, name: "allocator_type", scope: !51, file: !50, line: 231, baseType: !58)
!58 = distinct !DICompositeType(tag: DW_TAG_class_type, name: "allocator<int>", scope: !12, file: !59, line: 83, size: 8, flags: DIFlagTypePassByValue | DIFlagNonTrivial, elements: !60, templateParams: !113, identifier: "_ZTSNSt3__19allocatorIiEE")
!59 = !DIFile(filename: "SVF/llvm-13.0.0.obj/bin/../include/c++/v1/__memory/allocator.h", directory: "/Users/ichang-yul/Desktop")
!60 = !{!61, !71, !75, !82, !85, !93, !101, !106, !110}
!61 = !DIDerivedType(tag: DW_TAG_inheritance, scope: !58, baseType: !62, extraData: i32 0)
!62 = distinct !DICompositeType(tag: DW_TAG_structure_type, name: "__non_trivial_if<true, std::__1::allocator<int> >", scope: !12, file: !59, line: 72, size: 8, flags: DIFlagTypePassByValue | DIFlagNonTrivial, elements: !63, templateParams: !68, identifier: "_ZTSNSt3__116__non_trivial_ifILb1ENS_9allocatorIiEEEE")
!63 = !{!64}
!64 = !DISubprogram(name: "__non_trivial_if", scope: !62, file: !59, line: 74, type: !65, scopeLine: 74, flags: DIFlagPrototyped, spFlags: 0)
!65 = !DISubroutineType(types: !66)
!66 = !{null, !67}
!67 = !DIDerivedType(tag: DW_TAG_pointer_type, baseType: !62, size: 64, flags: DIFlagArtificial | DIFlagObjectPointer)
!68 = !{!69, !70}
!69 = !DITemplateValueParameter(name: "_Cond", type: !46, value: i8 1)
!70 = !DITemplateTypeParameter(name: "_Unique", type: !58)
!71 = !DISubprogram(name: "allocator", scope: !58, file: !59, line: 94, type: !72, scopeLine: 94, flags: DIFlagPublic | DIFlagPrototyped, spFlags: 0)
!72 = !DISubroutineType(types: !73)
!73 = !{null, !74}
!74 = !DIDerivedType(tag: DW_TAG_pointer_type, baseType: !58, size: 64, flags: DIFlagArtificial | DIFlagObjectPointer)
!75 = !DISubprogram(name: "allocate", linkageName: "_ZNSt3__19allocatorIiE8allocateEm", scope: !58, file: !59, line: 101, type: !76, scopeLine: 101, flags: DIFlagPublic | DIFlagPrototyped, spFlags: 0)
!76 = !DISubroutineType(types: !77)
!77 = !{!78, !74, !79}
!78 = !DIDerivedType(tag: DW_TAG_pointer_type, baseType: !14, size: 64)
!79 = !DIDerivedType(tag: DW_TAG_typedef, name: "size_t", file: !80, line: 46, baseType: !81)
!80 = !DIFile(filename: "SVF/llvm-13.0.0.obj/lib/clang/13.0.0/include/stddef.h", directory: "/Users/ichang-yul/Desktop")
!81 = !DIBasicType(name: "long unsigned int", size: 64, encoding: DW_ATE_unsigned)
!82 = !DISubprogram(name: "deallocate", linkageName: "_ZNSt3__19allocatorIiE10deallocateEPim", scope: !58, file: !59, line: 113, type: !83, scopeLine: 113, flags: DIFlagPublic | DIFlagPrototyped, spFlags: 0)
!83 = !DISubroutineType(types: !84)
!84 = !{null, !74, !78, !79}
!85 = !DISubprogram(name: "address", linkageName: "_ZNKSt3__19allocatorIiE7addressERi", scope: !58, file: !59, line: 134, type: !86, scopeLine: 134, flags: DIFlagPublic | DIFlagPrototyped, spFlags: 0)
!86 = !DISubroutineType(types: !87)
!87 = !{!88, !89, !91}
!88 = !DIDerivedType(tag: DW_TAG_typedef, name: "pointer", scope: !58, file: !59, line: 123, baseType: !78)
!89 = !DIDerivedType(tag: DW_TAG_pointer_type, baseType: !90, size: 64, flags: DIFlagArtificial | DIFlagObjectPointer)
!90 = !DIDerivedType(tag: DW_TAG_const_type, baseType: !58)
!91 = !DIDerivedType(tag: DW_TAG_typedef, name: "reference", scope: !58, file: !59, line: 125, baseType: !92)
!92 = !DIDerivedType(tag: DW_TAG_reference_type, baseType: !14, size: 64)
!93 = !DISubprogram(name: "address", linkageName: "_ZNKSt3__19allocatorIiE7addressERKi", scope: !58, file: !59, line: 138, type: !94, scopeLine: 138, flags: DIFlagPublic | DIFlagPrototyped, spFlags: 0)
!94 = !DISubroutineType(types: !95)
!95 = !{!96, !89, !99}
!96 = !DIDerivedType(tag: DW_TAG_typedef, name: "const_pointer", scope: !58, file: !59, line: 124, baseType: !97)
!97 = !DIDerivedType(tag: DW_TAG_pointer_type, baseType: !98, size: 64)
!98 = !DIDerivedType(tag: DW_TAG_const_type, baseType: !14)
!99 = !DIDerivedType(tag: DW_TAG_typedef, name: "const_reference", scope: !58, file: !59, line: 126, baseType: !100)
!100 = !DIDerivedType(tag: DW_TAG_reference_type, baseType: !98, size: 64)
!101 = !DISubprogram(name: "allocate", linkageName: "_ZNSt3__19allocatorIiE8allocateEmPKv", scope: !58, file: !59, line: 143, type: !102, scopeLine: 143, flags: DIFlagPublic | DIFlagPrototyped, spFlags: 0)
!102 = !DISubroutineType(types: !103)
!103 = !{!78, !74, !79, !104}
!104 = !DIDerivedType(tag: DW_TAG_pointer_type, baseType: !105, size: 64)
!105 = !DIDerivedType(tag: DW_TAG_const_type, baseType: null)
!106 = !DISubprogram(name: "max_size", linkageName: "_ZNKSt3__19allocatorIiE8max_sizeEv", scope: !58, file: !59, line: 147, type: !107, scopeLine: 147, flags: DIFlagPublic | DIFlagPrototyped, spFlags: 0)
!107 = !DISubroutineType(types: !108)
!108 = !{!109, !89}
!109 = !DIDerivedType(tag: DW_TAG_typedef, name: "size_type", file: !59, line: 87, baseType: !79)
!110 = !DISubprogram(name: "destroy", linkageName: "_ZNSt3__19allocatorIiE7destroyEPi", scope: !58, file: !59, line: 158, type: !111, scopeLine: 158, flags: DIFlagPublic | DIFlagPrototyped, spFlags: 0)
!111 = !DISubroutineType(types: !112)
!112 = !{null, !74, !88}
!113 = !{!114}
!114 = !DITemplateTypeParameter(name: "_Tp", type: !14)
!115 = !DIDerivedType(tag: DW_TAG_typedef, name: "size_type", scope: !51, file: !50, line: 238, baseType: !116)
!116 = !DIDerivedType(tag: DW_TAG_typedef, name: "size_type", scope: !58, file: !59, line: 87, baseType: !79)
!117 = !DISubprogram(name: "deallocate", linkageName: "_ZNSt3__116allocator_traitsINS_9allocatorIiEEE10deallocateERS2_Pim", scope: !51, file: !50, line: 281, type: !118, scopeLine: 281, flags: DIFlagPrototyped | DIFlagStaticMember, spFlags: 0)
!118 = !DISubroutineType(types: !119)
!119 = !{null, !56, !49, !115}
!120 = !{!121}
!121 = !DITemplateTypeParameter(name: "_Alloc", type: !58)
!122 = !DIDerivedType(tag: DW_TAG_member, name: "__end_", scope: !29, file: !28, line: 348, baseType: !48, size: 64, offset: 64, flags: DIFlagProtected)
!123 = !DIDerivedType(tag: DW_TAG_member, name: "__end_cap_", scope: !29, file: !28, line: 349, baseType: !124, size: 64, offset: 128, flags: DIFlagProtected)
!124 = distinct !DICompositeType(tag: DW_TAG_class_type, name: "__compressed_pair<int *, std::__1::allocator<int> >", scope: !12, file: !125, line: 109, size: 64, flags: DIFlagTypePassByValue | DIFlagNonTrivial, elements: !126, templateParams: !216, identifier: "_ZTSNSt3__117__compressed_pairIPiNS_9allocatorIiEEEE")
!125 = !DIFile(filename: "SVF/llvm-13.0.0.obj/bin/../include/c++/v1/__memory/compressed_pair.h", directory: "/Users/ichang-yul/Desktop")
!126 = !{!127, !158, !188, !192, !197, !200, !203, !208, !212}
!127 = !DIDerivedType(tag: DW_TAG_inheritance, scope: !124, baseType: !128, extraData: i32 0)
!128 = distinct !DICompositeType(tag: DW_TAG_structure_type, name: "__compressed_pair_elem<int *, 0, false>", scope: !12, file: !125, line: 35, size: 64, flags: DIFlagTypePassByValue | DIFlagNonTrivial, elements: !129, templateParams: !154, identifier: "_ZTSNSt3__122__compressed_pair_elemIPiLi0ELb0EEE")
!129 = !{!130, !131, !137, !141, !146}
!130 = !DIDerivedType(tag: DW_TAG_member, name: "__value_", scope: !128, file: !125, line: 70, baseType: !78, size: 64, flags: DIFlagPrivate)
!131 = !DISubprogram(name: "__compressed_pair_elem", scope: !128, file: !125, line: 41, type: !132, scopeLine: 41, flags: DIFlagPrototyped, spFlags: 0)
!132 = !DISubroutineType(types: !133)
!133 = !{null, !134, !135}
!134 = !DIDerivedType(tag: DW_TAG_pointer_type, baseType: !128, size: 64, flags: DIFlagArtificial | DIFlagObjectPointer)
!135 = distinct !DICompositeType(tag: DW_TAG_structure_type, name: "__default_init_tag", scope: !12, file: !125, line: 29, size: 8, flags: DIFlagTypePassByValue, elements: !136, identifier: "_ZTSNSt3__118__default_init_tagE")
!136 = !{}
!137 = !DISubprogram(name: "__compressed_pair_elem", scope: !128, file: !125, line: 43, type: !138, scopeLine: 43, flags: DIFlagPrototyped, spFlags: 0)
!138 = !DISubroutineType(types: !139)
!139 = !{null, !134, !140}
!140 = distinct !DICompositeType(tag: DW_TAG_structure_type, name: "__value_init_tag", scope: !12, file: !125, line: 30, size: 8, flags: DIFlagTypePassByValue, elements: !136, identifier: "_ZTSNSt3__116__value_init_tagE")
!141 = !DISubprogram(name: "__get", linkageName: "_ZNSt3__122__compressed_pair_elemIPiLi0ELb0EE5__getEv", scope: !128, file: !125, line: 65, type: !142, scopeLine: 65, flags: DIFlagPrototyped, spFlags: 0)
!142 = !DISubroutineType(types: !143)
!143 = !{!144, !134}
!144 = !DIDerivedType(tag: DW_TAG_typedef, name: "reference", scope: !128, file: !125, line: 37, baseType: !145)
!145 = !DIDerivedType(tag: DW_TAG_reference_type, baseType: !78, size: 64)
!146 = !DISubprogram(name: "__get", linkageName: "_ZNKSt3__122__compressed_pair_elemIPiLi0ELb0EE5__getEv", scope: !128, file: !125, line: 67, type: !147, scopeLine: 67, flags: DIFlagPrototyped, spFlags: 0)
!147 = !DISubroutineType(types: !148)
!148 = !{!149, !152}
!149 = !DIDerivedType(tag: DW_TAG_typedef, name: "const_reference", scope: !128, file: !125, line: 38, baseType: !150)
!150 = !DIDerivedType(tag: DW_TAG_reference_type, baseType: !151, size: 64)
!151 = !DIDerivedType(tag: DW_TAG_const_type, baseType: !78)
!152 = !DIDerivedType(tag: DW_TAG_pointer_type, baseType: !153, size: 64, flags: DIFlagArtificial | DIFlagObjectPointer)
!153 = !DIDerivedType(tag: DW_TAG_const_type, baseType: !128)
!154 = !{!155, !156, !157}
!155 = !DITemplateTypeParameter(name: "_Tp", type: !78)
!156 = !DITemplateValueParameter(name: "_Idx", type: !14, value: i32 0)
!157 = !DITemplateValueParameter(name: "_CanBeEmptyBase", type: !46, value: i8 0)
!158 = !DIDerivedType(tag: DW_TAG_inheritance, scope: !124, baseType: !159, extraData: i32 0)
!159 = distinct !DICompositeType(tag: DW_TAG_structure_type, name: "__compressed_pair_elem<std::__1::allocator<int>, 1, true>", scope: !12, file: !125, line: 74, size: 8, flags: DIFlagTypePassByValue | DIFlagNonTrivial, elements: !160, templateParams: !184, identifier: "_ZTSNSt3__122__compressed_pair_elemINS_9allocatorIiEELi1ELb1EEE")
!160 = !{!161, !162, !166, !169, !172, !177}
!161 = !DIDerivedType(tag: DW_TAG_inheritance, scope: !159, baseType: !58, flags: DIFlagPrivate, extraData: i32 0)
!162 = !DISubprogram(name: "__compressed_pair_elem", scope: !159, file: !125, line: 80, type: !163, scopeLine: 80, flags: DIFlagPrototyped, spFlags: 0)
!163 = !DISubroutineType(types: !164)
!164 = !{null, !165}
!165 = !DIDerivedType(tag: DW_TAG_pointer_type, baseType: !159, size: 64, flags: DIFlagArtificial | DIFlagObjectPointer)
!166 = !DISubprogram(name: "__compressed_pair_elem", scope: !159, file: !125, line: 82, type: !167, scopeLine: 82, flags: DIFlagPrototyped, spFlags: 0)
!167 = !DISubroutineType(types: !168)
!168 = !{null, !165, !135}
!169 = !DISubprogram(name: "__compressed_pair_elem", scope: !159, file: !125, line: 84, type: !170, scopeLine: 84, flags: DIFlagPrototyped, spFlags: 0)
!170 = !DISubroutineType(types: !171)
!171 = !{null, !165, !140}
!172 = !DISubprogram(name: "__get", linkageName: "_ZNSt3__122__compressed_pair_elemINS_9allocatorIiEELi1ELb1EE5__getEv", scope: !159, file: !125, line: 103, type: !173, scopeLine: 103, flags: DIFlagPrototyped, spFlags: 0)
!173 = !DISubroutineType(types: !174)
!174 = !{!175, !165}
!175 = !DIDerivedType(tag: DW_TAG_typedef, name: "reference", scope: !159, file: !125, line: 76, baseType: !176)
!176 = !DIDerivedType(tag: DW_TAG_reference_type, baseType: !58, size: 64)
!177 = !DISubprogram(name: "__get", linkageName: "_ZNKSt3__122__compressed_pair_elemINS_9allocatorIiEELi1ELb1EE5__getEv", scope: !159, file: !125, line: 105, type: !178, scopeLine: 105, flags: DIFlagPrototyped, spFlags: 0)
!178 = !DISubroutineType(types: !179)
!179 = !{!180, !182}
!180 = !DIDerivedType(tag: DW_TAG_typedef, name: "const_reference", scope: !159, file: !125, line: 77, baseType: !181)
!181 = !DIDerivedType(tag: DW_TAG_reference_type, baseType: !90, size: 64)
!182 = !DIDerivedType(tag: DW_TAG_pointer_type, baseType: !183, size: 64, flags: DIFlagArtificial | DIFlagObjectPointer)
!183 = !DIDerivedType(tag: DW_TAG_const_type, baseType: !159)
!184 = !{!185, !186, !187}
!185 = !DITemplateTypeParameter(name: "_Tp", type: !58)
!186 = !DITemplateValueParameter(name: "_Idx", type: !14, value: i32 1)
!187 = !DITemplateValueParameter(name: "_CanBeEmptyBase", type: !46, value: i8 1)
!188 = !DISubprogram(name: "first", linkageName: "_ZNSt3__117__compressed_pairIPiNS_9allocatorIiEEE5firstEv", scope: !124, file: !125, line: 150, type: !189, scopeLine: 150, flags: DIFlagPublic | DIFlagPrototyped, spFlags: 0)
!189 = !DISubroutineType(types: !190)
!190 = !{!144, !191}
!191 = !DIDerivedType(tag: DW_TAG_pointer_type, baseType: !124, size: 64, flags: DIFlagArtificial | DIFlagObjectPointer)
!192 = !DISubprogram(name: "first", linkageName: "_ZNKSt3__117__compressed_pairIPiNS_9allocatorIiEEE5firstEv", scope: !124, file: !125, line: 155, type: !193, scopeLine: 155, flags: DIFlagPublic | DIFlagPrototyped, spFlags: 0)
!193 = !DISubroutineType(types: !194)
!194 = !{!149, !195}
!195 = !DIDerivedType(tag: DW_TAG_pointer_type, baseType: !196, size: 64, flags: DIFlagArtificial | DIFlagObjectPointer)
!196 = !DIDerivedType(tag: DW_TAG_const_type, baseType: !124)
!197 = !DISubprogram(name: "second", linkageName: "_ZNSt3__117__compressed_pairIPiNS_9allocatorIiEEE6secondEv", scope: !124, file: !125, line: 160, type: !198, scopeLine: 160, flags: DIFlagPublic | DIFlagPrototyped, spFlags: 0)
!198 = !DISubroutineType(types: !199)
!199 = !{!175, !191}
!200 = !DISubprogram(name: "second", linkageName: "_ZNKSt3__117__compressed_pairIPiNS_9allocatorIiEEE6secondEv", scope: !124, file: !125, line: 165, type: !201, scopeLine: 165, flags: DIFlagPublic | DIFlagPrototyped, spFlags: 0)
!201 = !DISubroutineType(types: !202)
!202 = !{!180, !195}
!203 = !DISubprogram(name: "__get_first_base", linkageName: "_ZNSt3__117__compressed_pairIPiNS_9allocatorIiEEE16__get_first_baseEPS4_", scope: !124, file: !125, line: 170, type: !204, scopeLine: 170, flags: DIFlagPublic | DIFlagPrototyped | DIFlagStaticMember, spFlags: 0)
!204 = !DISubroutineType(types: !205)
!205 = !{!206, !207}
!206 = !DIDerivedType(tag: DW_TAG_pointer_type, baseType: !128, size: 64)
!207 = !DIDerivedType(tag: DW_TAG_pointer_type, baseType: !124, size: 64)
!208 = !DISubprogram(name: "__get_second_base", linkageName: "_ZNSt3__117__compressed_pairIPiNS_9allocatorIiEEE17__get_second_baseEPS4_", scope: !124, file: !125, line: 174, type: !209, scopeLine: 174, flags: DIFlagPublic | DIFlagPrototyped | DIFlagStaticMember, spFlags: 0)
!209 = !DISubroutineType(types: !210)
!210 = !{!211, !207}
!211 = !DIDerivedType(tag: DW_TAG_pointer_type, baseType: !159, size: 64)
!212 = !DISubprogram(name: "swap", linkageName: "_ZNSt3__117__compressed_pairIPiNS_9allocatorIiEEE4swapERS4_", scope: !124, file: !125, line: 179, type: !213, scopeLine: 179, flags: DIFlagPublic | DIFlagPrototyped, spFlags: 0)
!213 = !DISubroutineType(types: !214)
!214 = !{null, !191, !215}
!215 = !DIDerivedType(tag: DW_TAG_reference_type, baseType: !124, size: 64)
!216 = !{!217, !218}
!217 = !DITemplateTypeParameter(name: "_T1", type: !78)
!218 = !DITemplateTypeParameter(name: "_T2", type: !58)
!219 = !DISubprogram(name: "__alloc", linkageName: "_ZNSt3__113__vector_baseIiNS_9allocatorIiEEE7__allocEv", scope: !29, file: !28, line: 352, type: !220, scopeLine: 352, flags: DIFlagProtected | DIFlagPrototyped, spFlags: 0)
!220 = !DISubroutineType(types: !221)
!221 = !{!222, !224}
!222 = !DIDerivedType(tag: DW_TAG_reference_type, baseType: !223, size: 64)
!223 = !DIDerivedType(tag: DW_TAG_typedef, name: "allocator_type", scope: !29, file: !28, line: 334, baseType: !58)
!224 = !DIDerivedType(tag: DW_TAG_pointer_type, baseType: !29, size: 64, flags: DIFlagArtificial | DIFlagObjectPointer)
!225 = !DISubprogram(name: "__alloc", linkageName: "_ZNKSt3__113__vector_baseIiNS_9allocatorIiEEE7__allocEv", scope: !29, file: !28, line: 355, type: !226, scopeLine: 355, flags: DIFlagProtected | DIFlagPrototyped, spFlags: 0)
!226 = !DISubroutineType(types: !227)
!227 = !{!228, !230}
!228 = !DIDerivedType(tag: DW_TAG_reference_type, baseType: !229, size: 64)
!229 = !DIDerivedType(tag: DW_TAG_const_type, baseType: !223)
!230 = !DIDerivedType(tag: DW_TAG_pointer_type, baseType: !231, size: 64, flags: DIFlagArtificial | DIFlagObjectPointer)
!231 = !DIDerivedType(tag: DW_TAG_const_type, baseType: !29)
!232 = !DISubprogram(name: "__end_cap", linkageName: "_ZNSt3__113__vector_baseIiNS_9allocatorIiEEE9__end_capEv", scope: !29, file: !28, line: 358, type: !233, scopeLine: 358, flags: DIFlagProtected | DIFlagPrototyped, spFlags: 0)
!233 = !DISubroutineType(types: !234)
!234 = !{!235, !224}
!235 = !DIDerivedType(tag: DW_TAG_reference_type, baseType: !48, size: 64)
!236 = !DISubprogram(name: "__end_cap", linkageName: "_ZNKSt3__113__vector_baseIiNS_9allocatorIiEEE9__end_capEv", scope: !29, file: !28, line: 361, type: !237, scopeLine: 361, flags: DIFlagProtected | DIFlagPrototyped, spFlags: 0)
!237 = !DISubroutineType(types: !238)
!238 = !{!239, !230}
!239 = !DIDerivedType(tag: DW_TAG_reference_type, baseType: !240, size: 64)
!240 = !DIDerivedType(tag: DW_TAG_const_type, baseType: !48)
!241 = !DISubprogram(name: "__vector_base", scope: !29, file: !28, line: 365, type: !242, scopeLine: 365, flags: DIFlagProtected | DIFlagPrototyped, spFlags: 0)
!242 = !DISubroutineType(types: !243)
!243 = !{null, !224}
!244 = !DISubprogram(name: "__vector_base", scope: !29, file: !28, line: 367, type: !245, scopeLine: 367, flags: DIFlagProtected | DIFlagPrototyped, spFlags: 0)
!245 = !DISubroutineType(types: !246)
!246 = !{null, !224, !228}
!247 = !DISubprogram(name: "__vector_base", scope: !29, file: !28, line: 369, type: !248, scopeLine: 369, flags: DIFlagProtected | DIFlagPrototyped, spFlags: 0)
!248 = !DISubroutineType(types: !249)
!249 = !{null, !224, !250}
!250 = !DIDerivedType(tag: DW_TAG_rvalue_reference_type, baseType: !223, size: 64)
!251 = !DISubprogram(name: "~__vector_base", scope: !29, file: !28, line: 371, type: !242, scopeLine: 371, flags: DIFlagProtected | DIFlagPrototyped, spFlags: 0)
!252 = !DISubprogram(name: "clear", linkageName: "_ZNSt3__113__vector_baseIiNS_9allocatorIiEEE5clearEv", scope: !29, file: !28, line: 374, type: !242, scopeLine: 374, flags: DIFlagProtected | DIFlagPrototyped, spFlags: 0)
!253 = !DISubprogram(name: "capacity", linkageName: "_ZNKSt3__113__vector_baseIiNS_9allocatorIiEEE8capacityEv", scope: !29, file: !28, line: 376, type: !254, scopeLine: 376, flags: DIFlagProtected | DIFlagPrototyped, spFlags: 0)
!254 = !DISubroutineType(types: !255)
!255 = !{!27, !230}
!256 = !DISubprogram(name: "__destruct_at_end", linkageName: "_ZNSt3__113__vector_baseIiNS_9allocatorIiEEE17__destruct_at_endEPi", scope: !29, file: !28, line: 380, type: !257, scopeLine: 380, flags: DIFlagProtected | DIFlagPrototyped, spFlags: 0)
!257 = !DISubroutineType(types: !258)
!258 = !{null, !224, !48}
!259 = !DISubprogram(name: "__copy_assign_alloc", linkageName: "_ZNSt3__113__vector_baseIiNS_9allocatorIiEEE19__copy_assign_allocERKS3_", scope: !29, file: !28, line: 383, type: !260, scopeLine: 383, flags: DIFlagProtected | DIFlagPrototyped, spFlags: 0)
!260 = !DISubroutineType(types: !261)
!261 = !{null, !224, !262}
!262 = !DIDerivedType(tag: DW_TAG_reference_type, baseType: !231, size: 64)
!263 = !DISubprogram(name: "__move_assign_alloc", linkageName: "_ZNSt3__113__vector_baseIiNS_9allocatorIiEEE19__move_assign_allocERS3_", scope: !29, file: !28, line: 388, type: !264, scopeLine: 388, flags: DIFlagProtected | DIFlagPrototyped, spFlags: 0)
!264 = !DISubroutineType(types: !265)
!265 = !{null, !224, !266}
!266 = !DIDerivedType(tag: DW_TAG_reference_type, baseType: !29, size: 64)
!267 = !DISubprogram(name: "__throw_length_error", linkageName: "_ZNKSt3__113__vector_baseIiNS_9allocatorIiEEE20__throw_length_errorEv", scope: !29, file: !28, line: 396, type: !268, scopeLine: 396, flags: DIFlagProtected | DIFlagPrototyped | DIFlagNoReturn, spFlags: 0)
!268 = !DISubroutineType(types: !269)
!269 = !{null, !230}
!270 = !DISubprogram(name: "__throw_out_of_range", linkageName: "_ZNKSt3__113__vector_baseIiNS_9allocatorIiEEE20__throw_out_of_rangeEv", scope: !29, file: !28, line: 405, type: !268, scopeLine: 405, flags: DIFlagProtected | DIFlagPrototyped | DIFlagNoReturn, spFlags: 0)
!271 = !DISubprogram(name: "__copy_assign_alloc", linkageName: "_ZNSt3__113__vector_baseIiNS_9allocatorIiEEE19__copy_assign_allocERKS3_NS_17integral_constantIbLb1EEE", scope: !29, file: !28, line: 415, type: !272, scopeLine: 415, flags: DIFlagPrototyped, spFlags: 0)
!272 = !DISubroutineType(types: !273)
!273 = !{null, !224, !262, !274}
!274 = !DIDerivedType(tag: DW_TAG_typedef, name: "true_type", scope: !12, file: !275, line: 458, baseType: !276)
!275 = !DIFile(filename: "SVF/llvm-13.0.0.obj/bin/../include/c++/v1/type_traits", directory: "/Users/ichang-yul/Desktop")
!276 = distinct !DICompositeType(tag: DW_TAG_structure_type, name: "integral_constant<bool, true>", scope: !12, file: !275, line: 434, size: 8, flags: DIFlagTypePassByValue, elements: !277, templateParams: !287, identifier: "_ZTSNSt3__117integral_constantIbLb1EEE")
!277 = !{!278, !280, !286}
!278 = !DIDerivedType(tag: DW_TAG_member, name: "value", scope: !276, file: !275, line: 436, baseType: !279, flags: DIFlagStaticMember, extraData: i1 true)
!279 = !DIDerivedType(tag: DW_TAG_const_type, baseType: !46)
!280 = !DISubprogram(name: "operator bool", linkageName: "_ZNKSt3__117integral_constantIbLb1EEcvbEv", scope: !276, file: !275, line: 440, type: !281, scopeLine: 440, flags: DIFlagPrototyped, spFlags: 0)
!281 = !DISubroutineType(types: !282)
!282 = !{!283, !284}
!283 = !DIDerivedType(tag: DW_TAG_typedef, name: "value_type", scope: !276, file: !275, line: 437, baseType: !46)
!284 = !DIDerivedType(tag: DW_TAG_pointer_type, baseType: !285, size: 64, flags: DIFlagArtificial | DIFlagObjectPointer)
!285 = !DIDerivedType(tag: DW_TAG_const_type, baseType: !276)
!286 = !DISubprogram(name: "operator()", linkageName: "_ZNKSt3__117integral_constantIbLb1EEclEv", scope: !276, file: !275, line: 443, type: !281, scopeLine: 443, flags: DIFlagPrototyped, spFlags: 0)
!287 = !{!288, !289}
!288 = !DITemplateTypeParameter(name: "_Tp", type: !46)
!289 = !DITemplateValueParameter(name: "__v", type: !46, value: i8 1)
!290 = !DISubprogram(name: "__copy_assign_alloc", linkageName: "_ZNSt3__113__vector_baseIiNS_9allocatorIiEEE19__copy_assign_allocERKS3_NS_17integral_constantIbLb0EEE", scope: !29, file: !28, line: 427, type: !291, scopeLine: 427, flags: DIFlagPrototyped, spFlags: 0)
!291 = !DISubroutineType(types: !292)
!292 = !{null, !224, !262, !293}
!293 = !DIDerivedType(tag: DW_TAG_typedef, name: "false_type", scope: !12, file: !275, line: 459, baseType: !294)
!294 = distinct !DICompositeType(tag: DW_TAG_structure_type, name: "integral_constant<bool, false>", scope: !12, file: !275, line: 434, size: 8, flags: DIFlagTypePassByValue, elements: !295, templateParams: !304, identifier: "_ZTSNSt3__117integral_constantIbLb0EEE")
!295 = !{!296, !297, !303}
!296 = !DIDerivedType(tag: DW_TAG_member, name: "value", scope: !294, file: !275, line: 436, baseType: !279, flags: DIFlagStaticMember, extraData: i1 false)
!297 = !DISubprogram(name: "operator bool", linkageName: "_ZNKSt3__117integral_constantIbLb0EEcvbEv", scope: !294, file: !275, line: 440, type: !298, scopeLine: 440, flags: DIFlagPrototyped, spFlags: 0)
!298 = !DISubroutineType(types: !299)
!299 = !{!300, !301}
!300 = !DIDerivedType(tag: DW_TAG_typedef, name: "value_type", scope: !294, file: !275, line: 437, baseType: !46)
!301 = !DIDerivedType(tag: DW_TAG_pointer_type, baseType: !302, size: 64, flags: DIFlagArtificial | DIFlagObjectPointer)
!302 = !DIDerivedType(tag: DW_TAG_const_type, baseType: !294)
!303 = !DISubprogram(name: "operator()", linkageName: "_ZNKSt3__117integral_constantIbLb0EEclEv", scope: !294, file: !275, line: 443, type: !298, scopeLine: 443, flags: DIFlagPrototyped, spFlags: 0)
!304 = !{!288, !305}
!305 = !DITemplateValueParameter(name: "__v", type: !46, value: i8 0)
!306 = !DISubprogram(name: "__move_assign_alloc", linkageName: "_ZNSt3__113__vector_baseIiNS_9allocatorIiEEE19__move_assign_allocERS3_NS_17integral_constantIbLb1EEE", scope: !29, file: !28, line: 431, type: !307, scopeLine: 431, flags: DIFlagPrototyped, spFlags: 0)
!307 = !DISubroutineType(types: !308)
!308 = !{null, !224, !266, !274}
!309 = !DISubprogram(name: "__move_assign_alloc", linkageName: "_ZNSt3__113__vector_baseIiNS_9allocatorIiEEE19__move_assign_allocERS3_NS_17integral_constantIbLb0EEE", scope: !29, file: !28, line: 438, type: !310, scopeLine: 438, flags: DIFlagPrototyped, spFlags: 0)
!310 = !DISubroutineType(types: !311)
!311 = !{null, !224, !266, !293}
!312 = !{!114, !313}
!313 = !DITemplateTypeParameter(name: "_Allocator", type: !58)
!314 = !DIDerivedType(tag: DW_TAG_typedef, name: "size_type", scope: !315, file: !28, line: 506, baseType: !27)
!315 = distinct !DICompositeType(tag: DW_TAG_class_type, name: "vector<int, std::__1::allocator<int> >", scope: !12, file: !28, line: 493, size: 192, flags: DIFlagTypePassByReference | DIFlagNonTrivial, elements: !316, templateParams: !312, identifier: "_ZTSNSt3__16vectorIiNS_9allocatorIiEEEE")
!316 = !{!317, !318, !322, !328, !331, !334, !340, !343, !344, !349, !357, !361, !366, !369, !373, !376, !379, !382, !390, !391, !395, !401, !406, !407, !408, !414, !419, !420, !421, !422, !423, !424, !425, !428, !429, !432, !433, !434, !435, !441, !444, !445, !446, !449, !452, !453, !454, !458, !462, !465, !469, !470, !473, !476, !479, !482, !485, !488, !489, !490, !491, !494, !495, !496, !500, !501, !502, !505, !506, !507, !508, !509, !512, !518, !725, !728, !731, !734, !737, !738, !741, !744, !747, !748}
!317 = !DIDerivedType(tag: DW_TAG_inheritance, scope: !315, baseType: !29, extraData: i32 0)
!318 = !DISubprogram(name: "vector", scope: !315, file: !28, line: 519, type: !319, scopeLine: 519, flags: DIFlagPublic | DIFlagPrototyped, spFlags: 0)
!319 = !DISubroutineType(types: !320)
!320 = !{null, !321}
!321 = !DIDerivedType(tag: DW_TAG_pointer_type, baseType: !315, size: 64, flags: DIFlagArtificial | DIFlagObjectPointer)
!322 = !DISubprogram(name: "vector", scope: !315, file: !28, line: 525, type: !323, scopeLine: 525, flags: DIFlagPublic | DIFlagExplicit | DIFlagPrototyped, spFlags: 0)
!323 = !DISubroutineType(types: !324)
!324 = !{null, !321, !325}
!325 = !DIDerivedType(tag: DW_TAG_reference_type, baseType: !326, size: 64)
!326 = !DIDerivedType(tag: DW_TAG_const_type, baseType: !327)
!327 = !DIDerivedType(tag: DW_TAG_typedef, name: "allocator_type", scope: !315, file: !28, line: 502, baseType: !58)
!328 = !DISubprogram(name: "vector", scope: !315, file: !28, line: 537, type: !329, scopeLine: 537, flags: DIFlagPublic | DIFlagExplicit | DIFlagPrototyped, spFlags: 0)
!329 = !DISubroutineType(types: !330)
!330 = !{null, !321, !314}
!331 = !DISubprogram(name: "vector", scope: !315, file: !28, line: 539, type: !332, scopeLine: 539, flags: DIFlagPublic | DIFlagExplicit | DIFlagPrototyped, spFlags: 0)
!332 = !DISubroutineType(types: !333)
!333 = !{null, !321, !314, !325}
!334 = !DISubprogram(name: "vector", scope: !315, file: !28, line: 541, type: !335, scopeLine: 541, flags: DIFlagPublic | DIFlagPrototyped, spFlags: 0)
!335 = !DISubroutineType(types: !336)
!336 = !{null, !321, !314, !337}
!337 = !DIDerivedType(tag: DW_TAG_reference_type, baseType: !338, size: 64)
!338 = !DIDerivedType(tag: DW_TAG_const_type, baseType: !339)
!339 = !DIDerivedType(tag: DW_TAG_typedef, name: "value_type", scope: !315, file: !28, line: 501, baseType: !14)
!340 = !DISubprogram(name: "vector", scope: !315, file: !28, line: 542, type: !341, scopeLine: 542, flags: DIFlagPublic | DIFlagPrototyped, spFlags: 0)
!341 = !DISubroutineType(types: !342)
!342 = !{null, !321, !314, !337, !325}
!343 = !DISubprogram(name: "~vector", scope: !315, file: !28, line: 573, type: !319, scopeLine: 573, flags: DIFlagPublic | DIFlagPrototyped, spFlags: 0)
!344 = !DISubprogram(name: "vector", scope: !315, file: !28, line: 581, type: !345, scopeLine: 581, flags: DIFlagPublic | DIFlagPrototyped, spFlags: 0)
!345 = !DISubroutineType(types: !346)
!346 = !{null, !321, !347}
!347 = !DIDerivedType(tag: DW_TAG_reference_type, baseType: !348, size: 64)
!348 = !DIDerivedType(tag: DW_TAG_const_type, baseType: !315)
!349 = !DISubprogram(name: "vector", scope: !315, file: !28, line: 582, type: !350, scopeLine: 582, flags: DIFlagPublic | DIFlagPrototyped, spFlags: 0)
!350 = !DISubroutineType(types: !351)
!351 = !{null, !321, !347, !352}
!352 = !DIDerivedType(tag: DW_TAG_reference_type, baseType: !353, size: 64)
!353 = !DIDerivedType(tag: DW_TAG_const_type, baseType: !354)
!354 = !DIDerivedType(tag: DW_TAG_typedef, name: "type", scope: !355, file: !275, line: 528, baseType: !58)
!355 = distinct !DICompositeType(tag: DW_TAG_structure_type, name: "__identity<std::__1::allocator<int> >", scope: !12, file: !275, line: 528, size: 8, flags: DIFlagTypePassByValue, elements: !136, templateParams: !356, identifier: "_ZTSNSt3__110__identityINS_9allocatorIiEEEE")
!356 = !{!185}
!357 = !DISubprogram(name: "operator=", linkageName: "_ZNSt3__16vectorIiNS_9allocatorIiEEEaSERKS3_", scope: !315, file: !28, line: 584, type: !358, scopeLine: 584, flags: DIFlagPublic | DIFlagPrototyped, spFlags: 0)
!358 = !DISubroutineType(types: !359)
!359 = !{!360, !321, !347}
!360 = !DIDerivedType(tag: DW_TAG_reference_type, baseType: !315, size: 64)
!361 = !DISubprogram(name: "vector", scope: !315, file: !28, line: 588, type: !362, scopeLine: 588, flags: DIFlagPublic | DIFlagPrototyped, spFlags: 0)
!362 = !DISubroutineType(types: !363)
!363 = !{null, !321, !364}
!364 = !DICompositeType(tag: DW_TAG_class_type, name: "initializer_list<int>", scope: !13, file: !365, line: 58, flags: DIFlagFwdDecl | DIFlagNonTrivial, identifier: "_ZTSSt16initializer_listIiE")
!365 = !DIFile(filename: "SVF/llvm-13.0.0.obj/bin/../include/c++/v1/initializer_list", directory: "/Users/ichang-yul/Desktop")
!366 = !DISubprogram(name: "vector", scope: !315, file: !28, line: 591, type: !367, scopeLine: 591, flags: DIFlagPublic | DIFlagPrototyped, spFlags: 0)
!367 = !DISubroutineType(types: !368)
!368 = !{null, !321, !364, !325}
!369 = !DISubprogram(name: "vector", scope: !315, file: !28, line: 594, type: !370, scopeLine: 594, flags: DIFlagPublic | DIFlagPrototyped, spFlags: 0)
!370 = !DISubroutineType(types: !371)
!371 = !{null, !321, !372}
!372 = !DIDerivedType(tag: DW_TAG_rvalue_reference_type, baseType: !315, size: 64)
!373 = !DISubprogram(name: "vector", scope: !315, file: !28, line: 602, type: !374, scopeLine: 602, flags: DIFlagPublic | DIFlagPrototyped, spFlags: 0)
!374 = !DISubroutineType(types: !375)
!375 = !{null, !321, !372, !352}
!376 = !DISubprogram(name: "operator=", linkageName: "_ZNSt3__16vectorIiNS_9allocatorIiEEEaSEOS3_", scope: !315, file: !28, line: 604, type: !377, scopeLine: 604, flags: DIFlagPublic | DIFlagPrototyped, spFlags: 0)
!377 = !DISubroutineType(types: !378)
!378 = !{!360, !321, !372}
!379 = !DISubprogram(name: "operator=", linkageName: "_ZNSt3__16vectorIiNS_9allocatorIiEEEaSESt16initializer_listIiE", scope: !315, file: !28, line: 608, type: !380, scopeLine: 608, flags: DIFlagPublic | DIFlagPrototyped, spFlags: 0)
!380 = !DISubroutineType(types: !381)
!381 = !{!360, !321, !364}
!382 = !DISubprogram(name: "assign", linkageName: "_ZNSt3__16vectorIiNS_9allocatorIiEEE6assignEmRKi", scope: !315, file: !28, line: 635, type: !383, scopeLine: 635, flags: DIFlagPublic | DIFlagPrototyped, spFlags: 0)
!383 = !DISubroutineType(types: !384)
!384 = !{null, !321, !314, !385}
!385 = !DIDerivedType(tag: DW_TAG_typedef, name: "const_reference", scope: !315, file: !28, line: 505, baseType: !386)
!386 = !DIDerivedType(tag: DW_TAG_typedef, name: "const_reference", scope: !29, file: !28, line: 340, baseType: !387)
!387 = !DIDerivedType(tag: DW_TAG_reference_type, baseType: !388, size: 64)
!388 = !DIDerivedType(tag: DW_TAG_const_type, baseType: !389)
!389 = !DIDerivedType(tag: DW_TAG_typedef, name: "value_type", scope: !29, file: !28, line: 338, baseType: !14)
!390 = !DISubprogram(name: "assign", linkageName: "_ZNSt3__16vectorIiNS_9allocatorIiEEE6assignESt16initializer_listIiE", scope: !315, file: !28, line: 639, type: !362, scopeLine: 639, flags: DIFlagPublic | DIFlagPrototyped, spFlags: 0)
!391 = !DISubprogram(name: "get_allocator", linkageName: "_ZNKSt3__16vectorIiNS_9allocatorIiEEE13get_allocatorEv", scope: !315, file: !28, line: 644, type: !392, scopeLine: 644, flags: DIFlagPublic | DIFlagPrototyped, spFlags: 0)
!392 = !DISubroutineType(types: !393)
!393 = !{!327, !394}
!394 = !DIDerivedType(tag: DW_TAG_pointer_type, baseType: !348, size: 64, flags: DIFlagArtificial | DIFlagObjectPointer)
!395 = !DISubprogram(name: "begin", linkageName: "_ZNSt3__16vectorIiNS_9allocatorIiEEE5beginEv", scope: !315, file: !28, line: 647, type: !396, scopeLine: 647, flags: DIFlagPublic | DIFlagPrototyped, spFlags: 0)
!396 = !DISubroutineType(types: !397)
!397 = !{!398, !321}
!398 = !DIDerivedType(tag: DW_TAG_typedef, name: "iterator", scope: !315, file: !28, line: 510, baseType: !399)
!399 = !DICompositeType(tag: DW_TAG_class_type, name: "__wrap_iter<int *>", scope: !12, file: !400, line: 29, flags: DIFlagFwdDecl | DIFlagNonTrivial, identifier: "_ZTSNSt3__111__wrap_iterIPiEE")
!400 = !DIFile(filename: "SVF/llvm-13.0.0.obj/bin/../include/c++/v1/__iterator/wrap_iter.h", directory: "/Users/ichang-yul/Desktop")
!401 = !DISubprogram(name: "begin", linkageName: "_ZNKSt3__16vectorIiNS_9allocatorIiEEE5beginEv", scope: !315, file: !28, line: 648, type: !402, scopeLine: 648, flags: DIFlagPublic | DIFlagPrototyped, spFlags: 0)
!402 = !DISubroutineType(types: !403)
!403 = !{!404, !394}
!404 = !DIDerivedType(tag: DW_TAG_typedef, name: "const_iterator", scope: !315, file: !28, line: 511, baseType: !405)
!405 = !DICompositeType(tag: DW_TAG_class_type, name: "__wrap_iter<const int *>", scope: !12, file: !400, line: 29, flags: DIFlagFwdDecl | DIFlagNonTrivial, identifier: "_ZTSNSt3__111__wrap_iterIPKiEE")
!406 = !DISubprogram(name: "end", linkageName: "_ZNSt3__16vectorIiNS_9allocatorIiEEE3endEv", scope: !315, file: !28, line: 649, type: !396, scopeLine: 649, flags: DIFlagPublic | DIFlagPrototyped, spFlags: 0)
!407 = !DISubprogram(name: "end", linkageName: "_ZNKSt3__16vectorIiNS_9allocatorIiEEE3endEv", scope: !315, file: !28, line: 650, type: !402, scopeLine: 650, flags: DIFlagPublic | DIFlagPrototyped, spFlags: 0)
!408 = !DISubprogram(name: "rbegin", linkageName: "_ZNSt3__16vectorIiNS_9allocatorIiEEE6rbeginEv", scope: !315, file: !28, line: 653, type: !409, scopeLine: 653, flags: DIFlagPublic | DIFlagPrototyped, spFlags: 0)
!409 = !DISubroutineType(types: !410)
!410 = !{!411, !321}
!411 = !DIDerivedType(tag: DW_TAG_typedef, name: "reverse_iterator", scope: !315, file: !28, line: 512, baseType: !412)
!412 = !DICompositeType(tag: DW_TAG_class_type, name: "reverse_iterator<std::__1::__wrap_iter<int *> >", scope: !12, file: !413, line: 37, flags: DIFlagFwdDecl | DIFlagNonTrivial, identifier: "_ZTSNSt3__116reverse_iteratorINS_11__wrap_iterIPiEEEE")
!413 = !DIFile(filename: "SVF/llvm-13.0.0.obj/bin/../include/c++/v1/__iterator/reverse_iterator.h", directory: "/Users/ichang-yul/Desktop")
!414 = !DISubprogram(name: "rbegin", linkageName: "_ZNKSt3__16vectorIiNS_9allocatorIiEEE6rbeginEv", scope: !315, file: !28, line: 656, type: !415, scopeLine: 656, flags: DIFlagPublic | DIFlagPrototyped, spFlags: 0)
!415 = !DISubroutineType(types: !416)
!416 = !{!417, !394}
!417 = !DIDerivedType(tag: DW_TAG_typedef, name: "const_reverse_iterator", scope: !315, file: !28, line: 513, baseType: !418)
!418 = !DICompositeType(tag: DW_TAG_class_type, name: "reverse_iterator<std::__1::__wrap_iter<const int *> >", scope: !12, file: !413, line: 37, flags: DIFlagFwdDecl | DIFlagNonTrivial, identifier: "_ZTSNSt3__116reverse_iteratorINS_11__wrap_iterIPKiEEEE")
!419 = !DISubprogram(name: "rend", linkageName: "_ZNSt3__16vectorIiNS_9allocatorIiEEE4rendEv", scope: !315, file: !28, line: 659, type: !409, scopeLine: 659, flags: DIFlagPublic | DIFlagPrototyped, spFlags: 0)
!420 = !DISubprogram(name: "rend", linkageName: "_ZNKSt3__16vectorIiNS_9allocatorIiEEE4rendEv", scope: !315, file: !28, line: 662, type: !415, scopeLine: 662, flags: DIFlagPublic | DIFlagPrototyped, spFlags: 0)
!421 = !DISubprogram(name: "cbegin", linkageName: "_ZNKSt3__16vectorIiNS_9allocatorIiEEE6cbeginEv", scope: !315, file: !28, line: 666, type: !402, scopeLine: 666, flags: DIFlagPublic | DIFlagPrototyped, spFlags: 0)
!422 = !DISubprogram(name: "cend", linkageName: "_ZNKSt3__16vectorIiNS_9allocatorIiEEE4cendEv", scope: !315, file: !28, line: 669, type: !402, scopeLine: 669, flags: DIFlagPublic | DIFlagPrototyped, spFlags: 0)
!423 = !DISubprogram(name: "crbegin", linkageName: "_ZNKSt3__16vectorIiNS_9allocatorIiEEE7crbeginEv", scope: !315, file: !28, line: 672, type: !415, scopeLine: 672, flags: DIFlagPublic | DIFlagPrototyped, spFlags: 0)
!424 = !DISubprogram(name: "crend", linkageName: "_ZNKSt3__16vectorIiNS_9allocatorIiEEE5crendEv", scope: !315, file: !28, line: 675, type: !415, scopeLine: 675, flags: DIFlagPublic | DIFlagPrototyped, spFlags: 0)
!425 = !DISubprogram(name: "size", linkageName: "_ZNKSt3__16vectorIiNS_9allocatorIiEEE4sizeEv", scope: !315, file: !28, line: 679, type: !426, scopeLine: 679, flags: DIFlagPublic | DIFlagPrototyped, spFlags: 0)
!426 = !DISubroutineType(types: !427)
!427 = !{!314, !394}
!428 = !DISubprogram(name: "capacity", linkageName: "_ZNKSt3__16vectorIiNS_9allocatorIiEEE8capacityEv", scope: !315, file: !28, line: 682, type: !426, scopeLine: 682, flags: DIFlagPublic | DIFlagPrototyped, spFlags: 0)
!429 = !DISubprogram(name: "empty", linkageName: "_ZNKSt3__16vectorIiNS_9allocatorIiEEE5emptyEv", scope: !315, file: !28, line: 685, type: !430, scopeLine: 685, flags: DIFlagPublic | DIFlagPrototyped, spFlags: 0)
!430 = !DISubroutineType(types: !431)
!431 = !{!46, !394}
!432 = !DISubprogram(name: "max_size", linkageName: "_ZNKSt3__16vectorIiNS_9allocatorIiEEE8max_sizeEv", scope: !315, file: !28, line: 687, type: !426, scopeLine: 687, flags: DIFlagPublic | DIFlagPrototyped, spFlags: 0)
!433 = !DISubprogram(name: "reserve", linkageName: "_ZNSt3__16vectorIiNS_9allocatorIiEEE7reserveEm", scope: !315, file: !28, line: 688, type: !329, scopeLine: 688, flags: DIFlagPublic | DIFlagPrototyped, spFlags: 0)
!434 = !DISubprogram(name: "shrink_to_fit", linkageName: "_ZNSt3__16vectorIiNS_9allocatorIiEEE13shrink_to_fitEv", scope: !315, file: !28, line: 689, type: !319, scopeLine: 689, flags: DIFlagPublic | DIFlagPrototyped, spFlags: 0)
!435 = !DISubprogram(name: "operator[]", linkageName: "_ZNSt3__16vectorIiNS_9allocatorIiEEEixEm", scope: !315, file: !28, line: 691, type: !436, scopeLine: 691, flags: DIFlagPublic | DIFlagPrototyped, spFlags: 0)
!436 = !DISubroutineType(types: !437)
!437 = !{!438, !321, !314}
!438 = !DIDerivedType(tag: DW_TAG_typedef, name: "reference", scope: !315, file: !28, line: 504, baseType: !439)
!439 = !DIDerivedType(tag: DW_TAG_typedef, name: "reference", scope: !29, file: !28, line: 339, baseType: !440)
!440 = !DIDerivedType(tag: DW_TAG_reference_type, baseType: !389, size: 64)
!441 = !DISubprogram(name: "operator[]", linkageName: "_ZNKSt3__16vectorIiNS_9allocatorIiEEEixEm", scope: !315, file: !28, line: 692, type: !442, scopeLine: 692, flags: DIFlagPublic | DIFlagPrototyped, spFlags: 0)
!442 = !DISubroutineType(types: !443)
!443 = !{!385, !394, !314}
!444 = !DISubprogram(name: "at", linkageName: "_ZNSt3__16vectorIiNS_9allocatorIiEEE2atEm", scope: !315, file: !28, line: 693, type: !436, scopeLine: 693, flags: DIFlagPublic | DIFlagPrototyped, spFlags: 0)
!445 = !DISubprogram(name: "at", linkageName: "_ZNKSt3__16vectorIiNS_9allocatorIiEEE2atEm", scope: !315, file: !28, line: 694, type: !442, scopeLine: 694, flags: DIFlagPublic | DIFlagPrototyped, spFlags: 0)
!446 = !DISubprogram(name: "front", linkageName: "_ZNSt3__16vectorIiNS_9allocatorIiEEE5frontEv", scope: !315, file: !28, line: 696, type: !447, scopeLine: 696, flags: DIFlagPublic | DIFlagPrototyped, spFlags: 0)
!447 = !DISubroutineType(types: !448)
!448 = !{!438, !321}
!449 = !DISubprogram(name: "front", linkageName: "_ZNKSt3__16vectorIiNS_9allocatorIiEEE5frontEv", scope: !315, file: !28, line: 701, type: !450, scopeLine: 701, flags: DIFlagPublic | DIFlagPrototyped, spFlags: 0)
!450 = !DISubroutineType(types: !451)
!451 = !{!385, !394}
!452 = !DISubprogram(name: "back", linkageName: "_ZNSt3__16vectorIiNS_9allocatorIiEEE4backEv", scope: !315, file: !28, line: 706, type: !447, scopeLine: 706, flags: DIFlagPublic | DIFlagPrototyped, spFlags: 0)
!453 = !DISubprogram(name: "back", linkageName: "_ZNKSt3__16vectorIiNS_9allocatorIiEEE4backEv", scope: !315, file: !28, line: 711, type: !450, scopeLine: 711, flags: DIFlagPublic | DIFlagPrototyped, spFlags: 0)
!454 = !DISubprogram(name: "data", linkageName: "_ZNSt3__16vectorIiNS_9allocatorIiEEE4dataEv", scope: !315, file: !28, line: 718, type: !455, scopeLine: 718, flags: DIFlagPublic | DIFlagPrototyped, spFlags: 0)
!455 = !DISubroutineType(types: !456)
!456 = !{!457, !321}
!457 = !DIDerivedType(tag: DW_TAG_pointer_type, baseType: !339, size: 64)
!458 = !DISubprogram(name: "data", linkageName: "_ZNKSt3__16vectorIiNS_9allocatorIiEEE4dataEv", scope: !315, file: !28, line: 721, type: !459, scopeLine: 721, flags: DIFlagPublic | DIFlagPrototyped, spFlags: 0)
!459 = !DISubroutineType(types: !460)
!460 = !{!461, !394}
!461 = !DIDerivedType(tag: DW_TAG_pointer_type, baseType: !338, size: 64)
!462 = !DISubprogram(name: "push_back", linkageName: "_ZNSt3__16vectorIiNS_9allocatorIiEEE9push_backERKi", scope: !315, file: !28, line: 735, type: !463, scopeLine: 735, flags: DIFlagPublic | DIFlagPrototyped, spFlags: 0)
!463 = !DISubroutineType(types: !464)
!464 = !{null, !321, !385}
!465 = !DISubprogram(name: "push_back", linkageName: "_ZNSt3__16vectorIiNS_9allocatorIiEEE9push_backEOi", scope: !315, file: !28, line: 738, type: !466, scopeLine: 738, flags: DIFlagPublic | DIFlagPrototyped, spFlags: 0)
!466 = !DISubroutineType(types: !467)
!467 = !{null, !321, !468}
!468 = !DIDerivedType(tag: DW_TAG_rvalue_reference_type, baseType: !339, size: 64)
!469 = !DISubprogram(name: "pop_back", linkageName: "_ZNSt3__16vectorIiNS_9allocatorIiEEE8pop_backEv", scope: !315, file: !28, line: 750, type: !319, scopeLine: 750, flags: DIFlagPublic | DIFlagPrototyped, spFlags: 0)
!470 = !DISubprogram(name: "insert", linkageName: "_ZNSt3__16vectorIiNS_9allocatorIiEEE6insertENS_11__wrap_iterIPKiEERS5_", scope: !315, file: !28, line: 752, type: !471, scopeLine: 752, flags: DIFlagPublic | DIFlagPrototyped, spFlags: 0)
!471 = !DISubroutineType(types: !472)
!472 = !{!398, !321, !404, !385}
!473 = !DISubprogram(name: "insert", linkageName: "_ZNSt3__16vectorIiNS_9allocatorIiEEE6insertENS_11__wrap_iterIPKiEEOi", scope: !315, file: !28, line: 755, type: !474, scopeLine: 755, flags: DIFlagPublic | DIFlagPrototyped, spFlags: 0)
!474 = !DISubroutineType(types: !475)
!475 = !{!398, !321, !404, !468}
!476 = !DISubprogram(name: "insert", linkageName: "_ZNSt3__16vectorIiNS_9allocatorIiEEE6insertENS_11__wrap_iterIPKiEEmRS5_", scope: !315, file: !28, line: 760, type: !477, scopeLine: 760, flags: DIFlagPublic | DIFlagPrototyped, spFlags: 0)
!477 = !DISubroutineType(types: !478)
!478 = !{!398, !321, !404, !314, !385}
!479 = !DISubprogram(name: "insert", linkageName: "_ZNSt3__16vectorIiNS_9allocatorIiEEE6insertENS_11__wrap_iterIPKiEESt16initializer_listIiE", scope: !315, file: !28, line: 785, type: !480, scopeLine: 785, flags: DIFlagPublic | DIFlagPrototyped, spFlags: 0)
!480 = !DISubroutineType(types: !481)
!481 = !{!398, !321, !404, !364}
!482 = !DISubprogram(name: "erase", linkageName: "_ZNSt3__16vectorIiNS_9allocatorIiEEE5eraseENS_11__wrap_iterIPKiEE", scope: !315, file: !28, line: 789, type: !483, scopeLine: 789, flags: DIFlagPublic | DIFlagPrototyped, spFlags: 0)
!483 = !DISubroutineType(types: !484)
!484 = !{!398, !321, !404}
!485 = !DISubprogram(name: "erase", linkageName: "_ZNSt3__16vectorIiNS_9allocatorIiEEE5eraseENS_11__wrap_iterIPKiEES7_", scope: !315, file: !28, line: 790, type: !486, scopeLine: 790, flags: DIFlagPublic | DIFlagPrototyped, spFlags: 0)
!486 = !DISubroutineType(types: !487)
!487 = !{!398, !321, !404, !404}
!488 = !DISubprogram(name: "clear", linkageName: "_ZNSt3__16vectorIiNS_9allocatorIiEEE5clearEv", scope: !315, file: !28, line: 793, type: !319, scopeLine: 793, flags: DIFlagPublic | DIFlagPrototyped, spFlags: 0)
!489 = !DISubprogram(name: "resize", linkageName: "_ZNSt3__16vectorIiNS_9allocatorIiEEE6resizeEm", scope: !315, file: !28, line: 801, type: !329, scopeLine: 801, flags: DIFlagPublic | DIFlagPrototyped, spFlags: 0)
!490 = !DISubprogram(name: "resize", linkageName: "_ZNSt3__16vectorIiNS_9allocatorIiEEE6resizeEmRKi", scope: !315, file: !28, line: 802, type: !383, scopeLine: 802, flags: DIFlagPublic | DIFlagPrototyped, spFlags: 0)
!491 = !DISubprogram(name: "swap", linkageName: "_ZNSt3__16vectorIiNS_9allocatorIiEEE4swapERS3_", scope: !315, file: !28, line: 804, type: !492, scopeLine: 804, flags: DIFlagPublic | DIFlagPrototyped, spFlags: 0)
!492 = !DISubroutineType(types: !493)
!493 = !{null, !321, !360}
!494 = !DISubprogram(name: "__invariants", linkageName: "_ZNKSt3__16vectorIiNS_9allocatorIiEEE12__invariantsEv", scope: !315, file: !28, line: 812, type: !430, scopeLine: 812, flags: DIFlagPublic | DIFlagPrototyped, spFlags: 0)
!495 = !DISubprogram(name: "__invalidate_all_iterators", linkageName: "_ZNSt3__16vectorIiNS_9allocatorIiEEE26__invalidate_all_iteratorsEv", scope: !315, file: !28, line: 824, type: !319, scopeLine: 824, flags: DIFlagPrototyped, spFlags: 0)
!496 = !DISubprogram(name: "__invalidate_iterators_past", linkageName: "_ZNSt3__16vectorIiNS_9allocatorIiEEE27__invalidate_iterators_pastEPi", scope: !315, file: !28, line: 825, type: !497, scopeLine: 825, flags: DIFlagPrototyped, spFlags: 0)
!497 = !DISubroutineType(types: !498)
!498 = !{null, !321, !499}
!499 = !DIDerivedType(tag: DW_TAG_typedef, name: "pointer", scope: !315, file: !28, line: 508, baseType: !48)
!500 = !DISubprogram(name: "__vallocate", linkageName: "_ZNSt3__16vectorIiNS_9allocatorIiEEE11__vallocateEm", scope: !315, file: !28, line: 826, type: !329, scopeLine: 826, flags: DIFlagPrototyped, spFlags: 0)
!501 = !DISubprogram(name: "__vdeallocate", linkageName: "_ZNSt3__16vectorIiNS_9allocatorIiEEE13__vdeallocateEv", scope: !315, file: !28, line: 827, type: !319, scopeLine: 827, flags: DIFlagPrototyped, spFlags: 0)
!502 = !DISubprogram(name: "__recommend", linkageName: "_ZNKSt3__16vectorIiNS_9allocatorIiEEE11__recommendEm", scope: !315, file: !28, line: 828, type: !503, scopeLine: 828, flags: DIFlagPrototyped, spFlags: 0)
!503 = !DISubroutineType(types: !504)
!504 = !{!314, !394, !314}
!505 = !DISubprogram(name: "__construct_at_end", linkageName: "_ZNSt3__16vectorIiNS_9allocatorIiEEE18__construct_at_endEm", scope: !315, file: !28, line: 829, type: !329, scopeLine: 829, flags: DIFlagPrototyped, spFlags: 0)
!506 = !DISubprogram(name: "__construct_at_end", linkageName: "_ZNSt3__16vectorIiNS_9allocatorIiEEE18__construct_at_endEmRKi", scope: !315, file: !28, line: 831, type: !383, scopeLine: 831, flags: DIFlagPrototyped, spFlags: 0)
!507 = !DISubprogram(name: "__append", linkageName: "_ZNSt3__16vectorIiNS_9allocatorIiEEE8__appendEm", scope: !315, file: !28, line: 839, type: !329, scopeLine: 839, flags: DIFlagPrototyped, spFlags: 0)
!508 = !DISubprogram(name: "__append", linkageName: "_ZNSt3__16vectorIiNS_9allocatorIiEEE8__appendEmRKi", scope: !315, file: !28, line: 840, type: !383, scopeLine: 840, flags: DIFlagPrototyped, spFlags: 0)
!509 = !DISubprogram(name: "__make_iter", linkageName: "_ZNSt3__16vectorIiNS_9allocatorIiEEE11__make_iterEPi", scope: !315, file: !28, line: 842, type: !510, scopeLine: 842, flags: DIFlagPrototyped, spFlags: 0)
!510 = !DISubroutineType(types: !511)
!511 = !{!398, !321, !499}
!512 = !DISubprogram(name: "__make_iter", linkageName: "_ZNKSt3__16vectorIiNS_9allocatorIiEEE11__make_iterEPKi", scope: !315, file: !28, line: 844, type: !513, scopeLine: 844, flags: DIFlagPrototyped, spFlags: 0)
!513 = !DISubroutineType(types: !514)
!514 = !{!404, !394, !515}
!515 = !DIDerivedType(tag: DW_TAG_typedef, name: "const_pointer", scope: !315, file: !28, line: 509, baseType: !516)
!516 = !DIDerivedType(tag: DW_TAG_typedef, name: "const_pointer", scope: !29, file: !28, line: 343, baseType: !517)
!517 = !DIDerivedType(tag: DW_TAG_typedef, name: "const_pointer", scope: !51, file: !50, line: 234, baseType: !96)
!518 = !DISubprogram(name: "__swap_out_circular_buffer", linkageName: "_ZNSt3__16vectorIiNS_9allocatorIiEEE26__swap_out_circular_bufferERNS_14__split_bufferIiRS2_EE", scope: !315, file: !28, line: 845, type: !519, scopeLine: 845, flags: DIFlagPrototyped, spFlags: 0)
!519 = !DISubroutineType(types: !520)
!520 = !{null, !321, !521}
!521 = !DIDerivedType(tag: DW_TAG_reference_type, baseType: !522, size: 64)
!522 = distinct !DICompositeType(tag: DW_TAG_structure_type, name: "__split_buffer<int, std::__1::allocator<int> &>", scope: !12, file: !523, line: 29, size: 320, flags: DIFlagTypePassByReference | DIFlagNonTrivial, elements: !524, templateParams: !723, identifier: "_ZTSNSt3__114__split_bufferIiRNS_9allocatorIiEEEE")
!523 = !DIFile(filename: "SVF/llvm-13.0.0.obj/bin/../include/c++/v1/__split_buffer", directory: "/Users/ichang-yul/Desktop")
!524 = !{!525, !534, !536, !537, !538, !594, !600, !603, !608, !614, !618, !623, !626, !629, !632, !636, !637, !641, !644, !647, !651, !656, !657, !658, !659, !662, !665, !666, !667, !668, !674, !680, !681, !682, !685, !686, !689, !690, !694, !695, !696, !697, !698, !701, !704, !707, !710, !711, !712, !713, !716, !717, !720}
!525 = !DIDerivedType(tag: DW_TAG_inheritance, scope: !522, baseType: !526, flags: DIFlagPrivate, extraData: i32 0)
!526 = distinct !DICompositeType(tag: DW_TAG_class_type, name: "__split_buffer_common<true>", scope: !12, file: !523, line: 21, size: 8, flags: DIFlagTypePassByValue, elements: !527, templateParams: !44, identifier: "_ZTSNSt3__121__split_buffer_commonILb1EEE")
!527 = !{!528, !533}
!528 = !DISubprogram(name: "__throw_length_error", linkageName: "_ZNKSt3__121__split_buffer_commonILb1EE20__throw_length_errorEv", scope: !526, file: !523, line: 24, type: !529, scopeLine: 24, flags: DIFlagProtected | DIFlagPrototyped | DIFlagNoReturn, spFlags: 0)
!529 = !DISubroutineType(types: !530)
!530 = !{null, !531}
!531 = !DIDerivedType(tag: DW_TAG_pointer_type, baseType: !532, size: 64, flags: DIFlagArtificial | DIFlagObjectPointer)
!532 = !DIDerivedType(tag: DW_TAG_const_type, baseType: !526)
!533 = !DISubprogram(name: "__throw_out_of_range", linkageName: "_ZNKSt3__121__split_buffer_commonILb1EE20__throw_out_of_rangeEv", scope: !526, file: !523, line: 25, type: !529, scopeLine: 25, flags: DIFlagProtected | DIFlagPrototyped | DIFlagNoReturn, spFlags: 0)
!534 = !DIDerivedType(tag: DW_TAG_member, name: "__first_", scope: !522, file: !523, line: 49, baseType: !535, size: 64)
!535 = !DIDerivedType(tag: DW_TAG_typedef, name: "pointer", scope: !522, file: !523, line: 44, baseType: !49)
!536 = !DIDerivedType(tag: DW_TAG_member, name: "__begin_", scope: !522, file: !523, line: 50, baseType: !535, size: 64, offset: 64)
!537 = !DIDerivedType(tag: DW_TAG_member, name: "__end_", scope: !522, file: !523, line: 51, baseType: !535, size: 64, offset: 128)
!538 = !DIDerivedType(tag: DW_TAG_member, name: "__end_cap_", scope: !522, file: !523, line: 52, baseType: !539, size: 128, offset: 192)
!539 = distinct !DICompositeType(tag: DW_TAG_class_type, name: "__compressed_pair<int *, std::__1::allocator<int> &>", scope: !12, file: !125, line: 109, size: 128, flags: DIFlagTypePassByValue | DIFlagNonTrivial, elements: !540, templateParams: !592, identifier: "_ZTSNSt3__117__compressed_pairIPiRNS_9allocatorIiEEEE")
!540 = !{!541, !542, !565, !569, !574, !577, !580, !584, !588}
!541 = !DIDerivedType(tag: DW_TAG_inheritance, scope: !539, baseType: !128, extraData: i32 0)
!542 = !DIDerivedType(tag: DW_TAG_inheritance, scope: !539, baseType: !543, offset: 64, extraData: i32 0)
!543 = distinct !DICompositeType(tag: DW_TAG_structure_type, name: "__compressed_pair_elem<std::__1::allocator<int> &, 1, false>", scope: !12, file: !125, line: 35, size: 64, flags: DIFlagTypePassByValue | DIFlagNonTrivial, elements: !544, templateParams: !563, identifier: "_ZTSNSt3__122__compressed_pair_elemIRNS_9allocatorIiEELi1ELb0EEE")
!544 = !{!545, !546, !550, !553, !557}
!545 = !DIDerivedType(tag: DW_TAG_member, name: "__value_", scope: !543, file: !125, line: 70, baseType: !176, size: 64, flags: DIFlagPrivate)
!546 = !DISubprogram(name: "__compressed_pair_elem", scope: !543, file: !125, line: 41, type: !547, scopeLine: 41, flags: DIFlagPrototyped, spFlags: 0)
!547 = !DISubroutineType(types: !548)
!548 = !{null, !549, !135}
!549 = !DIDerivedType(tag: DW_TAG_pointer_type, baseType: !543, size: 64, flags: DIFlagArtificial | DIFlagObjectPointer)
!550 = !DISubprogram(name: "__compressed_pair_elem", scope: !543, file: !125, line: 43, type: !551, scopeLine: 43, flags: DIFlagPrototyped, spFlags: 0)
!551 = !DISubroutineType(types: !552)
!552 = !{null, !549, !140}
!553 = !DISubprogram(name: "__get", linkageName: "_ZNSt3__122__compressed_pair_elemIRNS_9allocatorIiEELi1ELb0EE5__getEv", scope: !543, file: !125, line: 65, type: !554, scopeLine: 65, flags: DIFlagPrototyped, spFlags: 0)
!554 = !DISubroutineType(types: !555)
!555 = !{!556, !549}
!556 = !DIDerivedType(tag: DW_TAG_typedef, name: "reference", scope: !543, file: !125, line: 37, baseType: !176)
!557 = !DISubprogram(name: "__get", linkageName: "_ZNKSt3__122__compressed_pair_elemIRNS_9allocatorIiEELi1ELb0EE5__getEv", scope: !543, file: !125, line: 67, type: !558, scopeLine: 67, flags: DIFlagPrototyped, spFlags: 0)
!558 = !DISubroutineType(types: !559)
!559 = !{!560, !561}
!560 = !DIDerivedType(tag: DW_TAG_typedef, name: "const_reference", scope: !543, file: !125, line: 38, baseType: !176)
!561 = !DIDerivedType(tag: DW_TAG_pointer_type, baseType: !562, size: 64, flags: DIFlagArtificial | DIFlagObjectPointer)
!562 = !DIDerivedType(tag: DW_TAG_const_type, baseType: !543)
!563 = !{!564, !186, !157}
!564 = !DITemplateTypeParameter(name: "_Tp", type: !176)
!565 = !DISubprogram(name: "first", linkageName: "_ZNSt3__117__compressed_pairIPiRNS_9allocatorIiEEE5firstEv", scope: !539, file: !125, line: 150, type: !566, scopeLine: 150, flags: DIFlagPublic | DIFlagPrototyped, spFlags: 0)
!566 = !DISubroutineType(types: !567)
!567 = !{!144, !568}
!568 = !DIDerivedType(tag: DW_TAG_pointer_type, baseType: !539, size: 64, flags: DIFlagArtificial | DIFlagObjectPointer)
!569 = !DISubprogram(name: "first", linkageName: "_ZNKSt3__117__compressed_pairIPiRNS_9allocatorIiEEE5firstEv", scope: !539, file: !125, line: 155, type: !570, scopeLine: 155, flags: DIFlagPublic | DIFlagPrototyped, spFlags: 0)
!570 = !DISubroutineType(types: !571)
!571 = !{!149, !572}
!572 = !DIDerivedType(tag: DW_TAG_pointer_type, baseType: !573, size: 64, flags: DIFlagArtificial | DIFlagObjectPointer)
!573 = !DIDerivedType(tag: DW_TAG_const_type, baseType: !539)
!574 = !DISubprogram(name: "second", linkageName: "_ZNSt3__117__compressed_pairIPiRNS_9allocatorIiEEE6secondEv", scope: !539, file: !125, line: 160, type: !575, scopeLine: 160, flags: DIFlagPublic | DIFlagPrototyped, spFlags: 0)
!575 = !DISubroutineType(types: !576)
!576 = !{!556, !568}
!577 = !DISubprogram(name: "second", linkageName: "_ZNKSt3__117__compressed_pairIPiRNS_9allocatorIiEEE6secondEv", scope: !539, file: !125, line: 165, type: !578, scopeLine: 165, flags: DIFlagPublic | DIFlagPrototyped, spFlags: 0)
!578 = !DISubroutineType(types: !579)
!579 = !{!560, !572}
!580 = !DISubprogram(name: "__get_first_base", linkageName: "_ZNSt3__117__compressed_pairIPiRNS_9allocatorIiEEE16__get_first_baseEPS5_", scope: !539, file: !125, line: 170, type: !581, scopeLine: 170, flags: DIFlagPublic | DIFlagPrototyped | DIFlagStaticMember, spFlags: 0)
!581 = !DISubroutineType(types: !582)
!582 = !{!206, !583}
!583 = !DIDerivedType(tag: DW_TAG_pointer_type, baseType: !539, size: 64)
!584 = !DISubprogram(name: "__get_second_base", linkageName: "_ZNSt3__117__compressed_pairIPiRNS_9allocatorIiEEE17__get_second_baseEPS5_", scope: !539, file: !125, line: 174, type: !585, scopeLine: 174, flags: DIFlagPublic | DIFlagPrototyped | DIFlagStaticMember, spFlags: 0)
!585 = !DISubroutineType(types: !586)
!586 = !{!587, !583}
!587 = !DIDerivedType(tag: DW_TAG_pointer_type, baseType: !543, size: 64)
!588 = !DISubprogram(name: "swap", linkageName: "_ZNSt3__117__compressed_pairIPiRNS_9allocatorIiEEE4swapERS5_", scope: !539, file: !125, line: 179, type: !589, scopeLine: 179, flags: DIFlagPublic | DIFlagPrototyped, spFlags: 0)
!589 = !DISubroutineType(types: !590)
!590 = !{null, !568, !591}
!591 = !DIDerivedType(tag: DW_TAG_reference_type, baseType: !539, size: 64)
!592 = !{!217, !593}
!593 = !DITemplateTypeParameter(name: "_T2", type: !176)
!594 = !DISubprogram(name: "__split_buffer", scope: !522, file: !523, line: 33, type: !595, scopeLine: 33, flags: DIFlagPrivate | DIFlagPrototyped, spFlags: 0)
!595 = !DISubroutineType(types: !596)
!596 = !{null, !597, !598}
!597 = !DIDerivedType(tag: DW_TAG_pointer_type, baseType: !522, size: 64, flags: DIFlagArtificial | DIFlagObjectPointer)
!598 = !DIDerivedType(tag: DW_TAG_reference_type, baseType: !599, size: 64)
!599 = !DIDerivedType(tag: DW_TAG_const_type, baseType: !522)
!600 = !DISubprogram(name: "operator=", linkageName: "_ZNSt3__114__split_bufferIiRNS_9allocatorIiEEEaSERKS4_", scope: !522, file: !523, line: 34, type: !601, scopeLine: 34, flags: DIFlagPrivate | DIFlagPrototyped, spFlags: 0)
!601 = !DISubroutineType(types: !602)
!602 = !{!521, !597, !598}
!603 = !DISubprogram(name: "__alloc", linkageName: "_ZNSt3__114__split_bufferIiRNS_9allocatorIiEEE7__allocEv", scope: !522, file: !523, line: 57, type: !604, scopeLine: 57, flags: DIFlagPrototyped, spFlags: 0)
!604 = !DISubroutineType(types: !605)
!605 = !{!606, !597}
!606 = !DIDerivedType(tag: DW_TAG_reference_type, baseType: !607, size: 64)
!607 = !DIDerivedType(tag: DW_TAG_typedef, name: "__alloc_rr", scope: !522, file: !523, line: 38, baseType: !58)
!608 = !DISubprogram(name: "__alloc", linkageName: "_ZNKSt3__114__split_bufferIiRNS_9allocatorIiEEE7__allocEv", scope: !522, file: !523, line: 58, type: !609, scopeLine: 58, flags: DIFlagPrototyped, spFlags: 0)
!609 = !DISubroutineType(types: !610)
!610 = !{!611, !613}
!611 = !DIDerivedType(tag: DW_TAG_reference_type, baseType: !612, size: 64)
!612 = !DIDerivedType(tag: DW_TAG_const_type, baseType: !607)
!613 = !DIDerivedType(tag: DW_TAG_pointer_type, baseType: !599, size: 64, flags: DIFlagArtificial | DIFlagObjectPointer)
!614 = !DISubprogram(name: "__end_cap", linkageName: "_ZNSt3__114__split_bufferIiRNS_9allocatorIiEEE9__end_capEv", scope: !522, file: !523, line: 59, type: !615, scopeLine: 59, flags: DIFlagPrototyped, spFlags: 0)
!615 = !DISubroutineType(types: !616)
!616 = !{!617, !597}
!617 = !DIDerivedType(tag: DW_TAG_reference_type, baseType: !535, size: 64)
!618 = !DISubprogram(name: "__end_cap", linkageName: "_ZNKSt3__114__split_bufferIiRNS_9allocatorIiEEE9__end_capEv", scope: !522, file: !523, line: 60, type: !619, scopeLine: 60, flags: DIFlagPrototyped, spFlags: 0)
!619 = !DISubroutineType(types: !620)
!620 = !{!621, !613}
!621 = !DIDerivedType(tag: DW_TAG_reference_type, baseType: !622, size: 64)
!622 = !DIDerivedType(tag: DW_TAG_const_type, baseType: !535)
!623 = !DISubprogram(name: "__split_buffer", scope: !522, file: !523, line: 63, type: !624, scopeLine: 63, flags: DIFlagPrototyped, spFlags: 0)
!624 = !DISubroutineType(types: !625)
!625 = !{null, !597}
!626 = !DISubprogram(name: "__split_buffer", scope: !522, file: !523, line: 66, type: !627, scopeLine: 66, flags: DIFlagExplicit | DIFlagPrototyped, spFlags: 0)
!627 = !DISubroutineType(types: !628)
!628 = !{null, !597, !606}
!629 = !DISubprogram(name: "__split_buffer", scope: !522, file: !523, line: 68, type: !630, scopeLine: 68, flags: DIFlagExplicit | DIFlagPrototyped, spFlags: 0)
!630 = !DISubroutineType(types: !631)
!631 = !{null, !597, !611}
!632 = !DISubprogram(name: "__split_buffer", scope: !522, file: !523, line: 69, type: !633, scopeLine: 69, flags: DIFlagPrototyped, spFlags: 0)
!633 = !DISubroutineType(types: !634)
!634 = !{null, !597, !635, !635, !606}
!635 = !DIDerivedType(tag: DW_TAG_typedef, name: "size_type", scope: !522, file: !523, line: 42, baseType: !115)
!636 = !DISubprogram(name: "~__split_buffer", scope: !522, file: !523, line: 70, type: !624, scopeLine: 70, flags: DIFlagPrototyped, spFlags: 0)
!637 = !DISubprogram(name: "__split_buffer", scope: !522, file: !523, line: 72, type: !638, scopeLine: 72, flags: DIFlagPrototyped, spFlags: 0)
!638 = !DISubroutineType(types: !639)
!639 = !{null, !597, !640}
!640 = !DIDerivedType(tag: DW_TAG_rvalue_reference_type, baseType: !522, size: 64)
!641 = !DISubprogram(name: "__split_buffer", scope: !522, file: !523, line: 74, type: !642, scopeLine: 74, flags: DIFlagPrototyped, spFlags: 0)
!642 = !DISubroutineType(types: !643)
!643 = !{null, !597, !640, !611}
!644 = !DISubprogram(name: "operator=", linkageName: "_ZNSt3__114__split_bufferIiRNS_9allocatorIiEEEaSEOS4_", scope: !522, file: !523, line: 75, type: !645, scopeLine: 75, flags: DIFlagPrototyped, spFlags: 0)
!645 = !DISubroutineType(types: !646)
!646 = !{!521, !597, !640}
!647 = !DISubprogram(name: "begin", linkageName: "_ZNSt3__114__split_bufferIiRNS_9allocatorIiEEE5beginEv", scope: !522, file: !523, line: 80, type: !648, scopeLine: 80, flags: DIFlagPrototyped, spFlags: 0)
!648 = !DISubroutineType(types: !649)
!649 = !{!650, !597}
!650 = !DIDerivedType(tag: DW_TAG_typedef, name: "iterator", scope: !522, file: !523, line: 46, baseType: !535)
!651 = !DISubprogram(name: "begin", linkageName: "_ZNKSt3__114__split_bufferIiRNS_9allocatorIiEEE5beginEv", scope: !522, file: !523, line: 81, type: !652, scopeLine: 81, flags: DIFlagPrototyped, spFlags: 0)
!652 = !DISubroutineType(types: !653)
!653 = !{!654, !613}
!654 = !DIDerivedType(tag: DW_TAG_typedef, name: "const_iterator", scope: !522, file: !523, line: 47, baseType: !655)
!655 = !DIDerivedType(tag: DW_TAG_typedef, name: "const_pointer", scope: !522, file: !523, line: 45, baseType: !517)
!656 = !DISubprogram(name: "end", linkageName: "_ZNSt3__114__split_bufferIiRNS_9allocatorIiEEE3endEv", scope: !522, file: !523, line: 82, type: !648, scopeLine: 82, flags: DIFlagPrototyped, spFlags: 0)
!657 = !DISubprogram(name: "end", linkageName: "_ZNKSt3__114__split_bufferIiRNS_9allocatorIiEEE3endEv", scope: !522, file: !523, line: 83, type: !652, scopeLine: 83, flags: DIFlagPrototyped, spFlags: 0)
!658 = !DISubprogram(name: "clear", linkageName: "_ZNSt3__114__split_bufferIiRNS_9allocatorIiEEE5clearEv", scope: !522, file: !523, line: 86, type: !624, scopeLine: 86, flags: DIFlagPrototyped, spFlags: 0)
!659 = !DISubprogram(name: "size", linkageName: "_ZNKSt3__114__split_bufferIiRNS_9allocatorIiEEE4sizeEv", scope: !522, file: !523, line: 88, type: !660, scopeLine: 88, flags: DIFlagPrototyped, spFlags: 0)
!660 = !DISubroutineType(types: !661)
!661 = !{!635, !613}
!662 = !DISubprogram(name: "empty", linkageName: "_ZNKSt3__114__split_bufferIiRNS_9allocatorIiEEE5emptyEv", scope: !522, file: !523, line: 89, type: !663, scopeLine: 89, flags: DIFlagPrototyped, spFlags: 0)
!663 = !DISubroutineType(types: !664)
!664 = !{!46, !613}
!665 = !DISubprogram(name: "capacity", linkageName: "_ZNKSt3__114__split_bufferIiRNS_9allocatorIiEEE8capacityEv", scope: !522, file: !523, line: 90, type: !660, scopeLine: 90, flags: DIFlagPrototyped, spFlags: 0)
!666 = !DISubprogram(name: "__front_spare", linkageName: "_ZNKSt3__114__split_bufferIiRNS_9allocatorIiEEE13__front_spareEv", scope: !522, file: !523, line: 91, type: !660, scopeLine: 91, flags: DIFlagPrototyped, spFlags: 0)
!667 = !DISubprogram(name: "__back_spare", linkageName: "_ZNKSt3__114__split_bufferIiRNS_9allocatorIiEEE12__back_spareEv", scope: !522, file: !523, line: 92, type: !660, scopeLine: 92, flags: DIFlagPrototyped, spFlags: 0)
!668 = !DISubprogram(name: "front", linkageName: "_ZNSt3__114__split_bufferIiRNS_9allocatorIiEEE5frontEv", scope: !522, file: !523, line: 94, type: !669, scopeLine: 94, flags: DIFlagPrototyped, spFlags: 0)
!669 = !DISubroutineType(types: !670)
!670 = !{!671, !597}
!671 = !DIDerivedType(tag: DW_TAG_typedef, name: "reference", scope: !522, file: !523, line: 40, baseType: !672)
!672 = !DIDerivedType(tag: DW_TAG_reference_type, baseType: !673, size: 64)
!673 = !DIDerivedType(tag: DW_TAG_typedef, name: "value_type", scope: !522, file: !523, line: 36, baseType: !14)
!674 = !DISubprogram(name: "front", linkageName: "_ZNKSt3__114__split_bufferIiRNS_9allocatorIiEEE5frontEv", scope: !522, file: !523, line: 95, type: !675, scopeLine: 95, flags: DIFlagPrototyped, spFlags: 0)
!675 = !DISubroutineType(types: !676)
!676 = !{!677, !613}
!677 = !DIDerivedType(tag: DW_TAG_typedef, name: "const_reference", scope: !522, file: !523, line: 41, baseType: !678)
!678 = !DIDerivedType(tag: DW_TAG_reference_type, baseType: !679, size: 64)
!679 = !DIDerivedType(tag: DW_TAG_const_type, baseType: !673)
!680 = !DISubprogram(name: "back", linkageName: "_ZNSt3__114__split_bufferIiRNS_9allocatorIiEEE4backEv", scope: !522, file: !523, line: 96, type: !669, scopeLine: 96, flags: DIFlagPrototyped, spFlags: 0)
!681 = !DISubprogram(name: "back", linkageName: "_ZNKSt3__114__split_bufferIiRNS_9allocatorIiEEE4backEv", scope: !522, file: !523, line: 97, type: !675, scopeLine: 97, flags: DIFlagPrototyped, spFlags: 0)
!682 = !DISubprogram(name: "reserve", linkageName: "_ZNSt3__114__split_bufferIiRNS_9allocatorIiEEE7reserveEm", scope: !522, file: !523, line: 99, type: !683, scopeLine: 99, flags: DIFlagPrototyped, spFlags: 0)
!683 = !DISubroutineType(types: !684)
!684 = !{null, !597, !635}
!685 = !DISubprogram(name: "shrink_to_fit", linkageName: "_ZNSt3__114__split_bufferIiRNS_9allocatorIiEEE13shrink_to_fitEv", scope: !522, file: !523, line: 100, type: !624, scopeLine: 100, flags: DIFlagPrototyped, spFlags: 0)
!686 = !DISubprogram(name: "push_front", linkageName: "_ZNSt3__114__split_bufferIiRNS_9allocatorIiEEE10push_frontERKi", scope: !522, file: !523, line: 101, type: !687, scopeLine: 101, flags: DIFlagPrototyped, spFlags: 0)
!687 = !DISubroutineType(types: !688)
!688 = !{null, !597, !677}
!689 = !DISubprogram(name: "push_back", linkageName: "_ZNSt3__114__split_bufferIiRNS_9allocatorIiEEE9push_backERKi", scope: !522, file: !523, line: 102, type: !687, scopeLine: 102, flags: DIFlagPrototyped, spFlags: 0)
!690 = !DISubprogram(name: "push_front", linkageName: "_ZNSt3__114__split_bufferIiRNS_9allocatorIiEEE10push_frontEOi", scope: !522, file: !523, line: 103, type: !691, scopeLine: 103, flags: DIFlagPrototyped, spFlags: 0)
!691 = !DISubroutineType(types: !692)
!692 = !{null, !597, !693}
!693 = !DIDerivedType(tag: DW_TAG_rvalue_reference_type, baseType: !673, size: 64)
!694 = !DISubprogram(name: "push_back", linkageName: "_ZNSt3__114__split_bufferIiRNS_9allocatorIiEEE9push_backEOi", scope: !522, file: !523, line: 104, type: !691, scopeLine: 104, flags: DIFlagPrototyped, spFlags: 0)
!695 = !DISubprogram(name: "pop_front", linkageName: "_ZNSt3__114__split_bufferIiRNS_9allocatorIiEEE9pop_frontEv", scope: !522, file: !523, line: 108, type: !624, scopeLine: 108, flags: DIFlagPrototyped, spFlags: 0)
!696 = !DISubprogram(name: "pop_back", linkageName: "_ZNSt3__114__split_bufferIiRNS_9allocatorIiEEE8pop_backEv", scope: !522, file: !523, line: 109, type: !624, scopeLine: 109, flags: DIFlagPrototyped, spFlags: 0)
!697 = !DISubprogram(name: "__construct_at_end", linkageName: "_ZNSt3__114__split_bufferIiRNS_9allocatorIiEEE18__construct_at_endEm", scope: !522, file: !523, line: 111, type: !683, scopeLine: 111, flags: DIFlagPrototyped, spFlags: 0)
!698 = !DISubprogram(name: "__construct_at_end", linkageName: "_ZNSt3__114__split_bufferIiRNS_9allocatorIiEEE18__construct_at_endEmRKi", scope: !522, file: !523, line: 112, type: !699, scopeLine: 112, flags: DIFlagPrototyped, spFlags: 0)
!699 = !DISubroutineType(types: !700)
!700 = !{null, !597, !635, !677}
!701 = !DISubprogram(name: "__destruct_at_begin", linkageName: "_ZNSt3__114__split_bufferIiRNS_9allocatorIiEEE19__destruct_at_beginEPi", scope: !522, file: !523, line: 129, type: !702, scopeLine: 129, flags: DIFlagPrototyped, spFlags: 0)
!702 = !DISubroutineType(types: !703)
!703 = !{null, !597, !535}
!704 = !DISubprogram(name: "__destruct_at_begin", linkageName: "_ZNSt3__114__split_bufferIiRNS_9allocatorIiEEE19__destruct_at_beginEPiNS_17integral_constantIbLb0EEE", scope: !522, file: !523, line: 132, type: !705, scopeLine: 132, flags: DIFlagPrototyped, spFlags: 0)
!705 = !DISubroutineType(types: !706)
!706 = !{null, !597, !535, !293}
!707 = !DISubprogram(name: "__destruct_at_begin", linkageName: "_ZNSt3__114__split_bufferIiRNS_9allocatorIiEEE19__destruct_at_beginEPiNS_17integral_constantIbLb1EEE", scope: !522, file: !523, line: 134, type: !708, scopeLine: 134, flags: DIFlagPrototyped, spFlags: 0)
!708 = !DISubroutineType(types: !709)
!709 = !{null, !597, !535, !274}
!710 = !DISubprogram(name: "__destruct_at_end", linkageName: "_ZNSt3__114__split_bufferIiRNS_9allocatorIiEEE17__destruct_at_endEPi", scope: !522, file: !523, line: 137, type: !702, scopeLine: 137, flags: DIFlagPrototyped, spFlags: 0)
!711 = !DISubprogram(name: "__destruct_at_end", linkageName: "_ZNSt3__114__split_bufferIiRNS_9allocatorIiEEE17__destruct_at_endEPiNS_17integral_constantIbLb0EEE", scope: !522, file: !523, line: 140, type: !705, scopeLine: 140, flags: DIFlagPrototyped, spFlags: 0)
!712 = !DISubprogram(name: "__destruct_at_end", linkageName: "_ZNSt3__114__split_bufferIiRNS_9allocatorIiEEE17__destruct_at_endEPiNS_17integral_constantIbLb1EEE", scope: !522, file: !523, line: 142, type: !708, scopeLine: 142, flags: DIFlagPrototyped, spFlags: 0)
!713 = !DISubprogram(name: "swap", linkageName: "_ZNSt3__114__split_bufferIiRNS_9allocatorIiEEE4swapERS4_", scope: !522, file: !523, line: 144, type: !714, scopeLine: 144, flags: DIFlagPrototyped, spFlags: 0)
!714 = !DISubroutineType(types: !715)
!715 = !{null, !597, !521}
!716 = !DISubprogram(name: "__invariants", linkageName: "_ZNKSt3__114__split_bufferIiRNS_9allocatorIiEEE12__invariantsEv", scope: !522, file: !523, line: 148, type: !663, scopeLine: 148, flags: DIFlagPrototyped, spFlags: 0)
!717 = !DISubprogram(name: "__move_assign_alloc", linkageName: "_ZNSt3__114__split_bufferIiRNS_9allocatorIiEEE19__move_assign_allocERS4_NS_17integral_constantIbLb1EEE", scope: !522, file: !523, line: 152, type: !718, scopeLine: 152, flags: DIFlagPrivate | DIFlagPrototyped, spFlags: 0)
!718 = !DISubroutineType(types: !719)
!719 = !{null, !597, !521, !274}
!720 = !DISubprogram(name: "__move_assign_alloc", linkageName: "_ZNSt3__114__split_bufferIiRNS_9allocatorIiEEE19__move_assign_allocERS4_NS_17integral_constantIbLb0EEE", scope: !522, file: !523, line: 159, type: !721, scopeLine: 159, flags: DIFlagPrivate | DIFlagPrototyped, spFlags: 0)
!721 = !DISubroutineType(types: !722)
!722 = !{null, !597, !521, !293}
!723 = !{!114, !724}
!724 = !DITemplateTypeParameter(name: "_Allocator", type: !176)
!725 = !DISubprogram(name: "__swap_out_circular_buffer", linkageName: "_ZNSt3__16vectorIiNS_9allocatorIiEEE26__swap_out_circular_bufferERNS_14__split_bufferIiRS2_EEPi", scope: !315, file: !28, line: 846, type: !726, scopeLine: 846, flags: DIFlagPrototyped, spFlags: 0)
!726 = !DISubroutineType(types: !727)
!727 = !{!499, !321, !521, !499}
!728 = !DISubprogram(name: "__move_range", linkageName: "_ZNSt3__16vectorIiNS_9allocatorIiEEE12__move_rangeEPiS4_S4_", scope: !315, file: !28, line: 847, type: !729, scopeLine: 847, flags: DIFlagPrototyped, spFlags: 0)
!729 = !DISubroutineType(types: !730)
!730 = !{null, !321, !499, !499, !499}
!731 = !DISubprogram(name: "__move_assign", linkageName: "_ZNSt3__16vectorIiNS_9allocatorIiEEE13__move_assignERS3_NS_17integral_constantIbLb1EEE", scope: !315, file: !28, line: 848, type: !732, scopeLine: 848, flags: DIFlagPrototyped, spFlags: 0)
!732 = !DISubroutineType(types: !733)
!733 = !{null, !321, !360, !274}
!734 = !DISubprogram(name: "__move_assign", linkageName: "_ZNSt3__16vectorIiNS_9allocatorIiEEE13__move_assignERS3_NS_17integral_constantIbLb0EEE", scope: !315, file: !28, line: 850, type: !735, scopeLine: 850, flags: DIFlagPrototyped, spFlags: 0)
!735 = !DISubroutineType(types: !736)
!736 = !{null, !321, !360, !293}
!737 = !DISubprogram(name: "__destruct_at_end", linkageName: "_ZNSt3__16vectorIiNS_9allocatorIiEEE17__destruct_at_endEPi", scope: !315, file: !28, line: 853, type: !497, scopeLine: 853, flags: DIFlagPrototyped, spFlags: 0)
!738 = !DISubprogram(name: "__annotate_contiguous_container", linkageName: "_ZNKSt3__16vectorIiNS_9allocatorIiEEE31__annotate_contiguous_containerEPKvS5_S5_S5_", scope: !315, file: !28, line: 890, type: !739, scopeLine: 890, flags: DIFlagPrototyped, spFlags: 0)
!739 = !DISubroutineType(types: !740)
!740 = !{null, !394, !104, !104, !104, !104}
!741 = !DISubprogram(name: "__annotate_new", linkageName: "_ZNKSt3__16vectorIiNS_9allocatorIiEEE14__annotate_newEm", scope: !315, file: !28, line: 894, type: !742, scopeLine: 894, flags: DIFlagPrototyped, spFlags: 0)
!742 = !DISubroutineType(types: !743)
!743 = !{null, !394, !314}
!744 = !DISubprogram(name: "__annotate_delete", linkageName: "_ZNKSt3__16vectorIiNS_9allocatorIiEEE17__annotate_deleteEv", scope: !315, file: !28, line: 900, type: !745, scopeLine: 900, flags: DIFlagPrototyped, spFlags: 0)
!745 = !DISubroutineType(types: !746)
!746 = !{null, !394}
!747 = !DISubprogram(name: "__annotate_increase", linkageName: "_ZNKSt3__16vectorIiNS_9allocatorIiEEE19__annotate_increaseEm", scope: !315, file: !28, line: 906, type: !742, scopeLine: 906, flags: DIFlagPrototyped, spFlags: 0)
!748 = !DISubprogram(name: "__annotate_shrink", linkageName: "_ZNKSt3__16vectorIiNS_9allocatorIiEEE17__annotate_shrinkEm", scope: !315, file: !28, line: 913, type: !742, scopeLine: 913, flags: DIFlagPrototyped, spFlags: 0)
!749 = !DIDerivedType(tag: DW_TAG_pointer_type, baseType: null, size: 64)
!750 = distinct !DICompositeType(tag: DW_TAG_class_type, name: "length_error", scope: !13, file: !751, line: 148, size: 128, flags: DIFlagTypePassByReference | DIFlagNonTrivial, elements: !752, vtableHolder: !757)
!751 = !DIFile(filename: "SVF/llvm-13.0.0.obj/bin/../include/c++/v1/stdexcept", directory: "/Users/ichang-yul/Desktop")
!752 = !{!753, !837, !841, !844, !849}
!753 = !DIDerivedType(tag: DW_TAG_inheritance, scope: !750, baseType: !754, flags: DIFlagPublic, extraData: i32 0)
!754 = distinct !DICompositeType(tag: DW_TAG_class_type, name: "logic_error", scope: !13, file: !751, line: 76, size: 128, flags: DIFlagTypePassByReference | DIFlagNonTrivial, elements: !755, vtableHolder: !757)
!755 = !{!756, !782, !809, !818, !821, !826, !830, !833}
!756 = !DIDerivedType(tag: DW_TAG_inheritance, scope: !754, baseType: !757, flags: DIFlagPublic, extraData: i32 0)
!757 = distinct !DICompositeType(tag: DW_TAG_class_type, name: "exception", scope: !13, file: !758, line: 99, size: 64, flags: DIFlagTypePassByReference | DIFlagNonTrivial, elements: !759, vtableHolder: !757)
!758 = !DIFile(filename: "SVF/llvm-13.0.0.obj/bin/../include/c++/v1/exception", directory: "/Users/ichang-yul/Desktop")
!759 = !{!760, !765, !769, !774, !775}
!760 = !DIDerivedType(tag: DW_TAG_member, name: "_vptr$exception", scope: !758, file: !758, baseType: !761, size: 64, flags: DIFlagArtificial)
!761 = !DIDerivedType(tag: DW_TAG_pointer_type, baseType: !762, size: 64)
!762 = !DIDerivedType(tag: DW_TAG_pointer_type, name: "__vtbl_ptr_type", baseType: !763, size: 64)
!763 = !DISubroutineType(types: !764)
!764 = !{!14}
!765 = !DISubprogram(name: "exception", scope: !757, file: !758, line: 102, type: !766, scopeLine: 102, flags: DIFlagPublic | DIFlagPrototyped, spFlags: 0)
!766 = !DISubroutineType(types: !767)
!767 = !{null, !768}
!768 = !DIDerivedType(tag: DW_TAG_pointer_type, baseType: !757, size: 64, flags: DIFlagArtificial | DIFlagObjectPointer)
!769 = !DISubprogram(name: "exception", scope: !757, file: !758, line: 103, type: !770, scopeLine: 103, flags: DIFlagPublic | DIFlagPrototyped, spFlags: 0)
!770 = !DISubroutineType(types: !771)
!771 = !{null, !768, !772}
!772 = !DIDerivedType(tag: DW_TAG_reference_type, baseType: !773, size: 64)
!773 = !DIDerivedType(tag: DW_TAG_const_type, baseType: !757)
!774 = !DISubprogram(name: "~exception", scope: !757, file: !758, line: 105, type: !766, scopeLine: 105, containingType: !757, virtualIndex: 0, flags: DIFlagPublic | DIFlagPrototyped, spFlags: DISPFlagVirtual)
!775 = !DISubprogram(name: "what", linkageName: "_ZNKSt9exception4whatEv", scope: !757, file: !758, line: 106, type: !776, scopeLine: 106, containingType: !757, virtualIndex: 2, flags: DIFlagPublic | DIFlagPrototyped, spFlags: DISPFlagVirtual)
!776 = !DISubroutineType(types: !777)
!777 = !{!778, !781}
!778 = !DIDerivedType(tag: DW_TAG_pointer_type, baseType: !779, size: 64)
!779 = !DIDerivedType(tag: DW_TAG_const_type, baseType: !780)
!780 = !DIBasicType(name: "char", size: 8, encoding: DW_ATE_signed_char)
!781 = !DIDerivedType(tag: DW_TAG_pointer_type, baseType: !773, size: 64, flags: DIFlagArtificial | DIFlagObjectPointer)
!782 = !DIDerivedType(tag: DW_TAG_member, name: "__imp_", scope: !754, file: !751, line: 81, baseType: !783, size: 64, offset: 64)
!783 = distinct !DICompositeType(tag: DW_TAG_class_type, name: "__libcpp_refstring", scope: !12, file: !751, line: 56, size: 64, flags: DIFlagTypePassByReference | DIFlagNonTrivial, elements: !784, identifier: "_ZTSNSt3__118__libcpp_refstringE")
!784 = !{!785, !786, !791, !795, !799, !803, !806}
!785 = !DIDerivedType(tag: DW_TAG_member, name: "__imp_", scope: !783, file: !751, line: 58, baseType: !778, size: 64)
!786 = !DISubprogram(name: "__uses_refcount", linkageName: "_ZNKSt3__118__libcpp_refstring15__uses_refcountEv", scope: !783, file: !751, line: 60, type: !787, scopeLine: 60, flags: DIFlagPrototyped, spFlags: 0)
!787 = !DISubroutineType(types: !788)
!788 = !{!46, !789}
!789 = !DIDerivedType(tag: DW_TAG_pointer_type, baseType: !790, size: 64, flags: DIFlagArtificial | DIFlagObjectPointer)
!790 = !DIDerivedType(tag: DW_TAG_const_type, baseType: !783)
!791 = !DISubprogram(name: "__libcpp_refstring", scope: !783, file: !751, line: 62, type: !792, scopeLine: 62, flags: DIFlagPublic | DIFlagExplicit | DIFlagPrototyped, spFlags: 0)
!792 = !DISubroutineType(types: !793)
!793 = !{null, !794, !778}
!794 = !DIDerivedType(tag: DW_TAG_pointer_type, baseType: !783, size: 64, flags: DIFlagArtificial | DIFlagObjectPointer)
!795 = !DISubprogram(name: "__libcpp_refstring", scope: !783, file: !751, line: 63, type: !796, scopeLine: 63, flags: DIFlagPublic | DIFlagPrototyped, spFlags: 0)
!796 = !DISubroutineType(types: !797)
!797 = !{null, !794, !798}
!798 = !DIDerivedType(tag: DW_TAG_reference_type, baseType: !790, size: 64)
!799 = !DISubprogram(name: "operator=", linkageName: "_ZNSt3__118__libcpp_refstringaSERKS0_", scope: !783, file: !751, line: 64, type: !800, scopeLine: 64, flags: DIFlagPublic | DIFlagPrototyped, spFlags: 0)
!800 = !DISubroutineType(types: !801)
!801 = !{!802, !794, !798}
!802 = !DIDerivedType(tag: DW_TAG_reference_type, baseType: !783, size: 64)
!803 = !DISubprogram(name: "~__libcpp_refstring", scope: !783, file: !751, line: 65, type: !804, scopeLine: 65, flags: DIFlagPublic | DIFlagPrototyped, spFlags: 0)
!804 = !DISubroutineType(types: !805)
!805 = !{null, !794}
!806 = !DISubprogram(name: "c_str", linkageName: "_ZNKSt3__118__libcpp_refstring5c_strEv", scope: !783, file: !751, line: 67, type: !807, scopeLine: 67, flags: DIFlagPublic | DIFlagPrototyped, spFlags: 0)
!807 = !DISubroutineType(types: !808)
!808 = !{!778, !789}
!809 = !DISubprogram(name: "logic_error", scope: !754, file: !751, line: 83, type: !810, scopeLine: 83, flags: DIFlagPublic | DIFlagExplicit | DIFlagPrototyped, spFlags: 0)
!810 = !DISubroutineType(types: !811)
!811 = !{null, !812, !813}
!812 = !DIDerivedType(tag: DW_TAG_pointer_type, baseType: !754, size: 64, flags: DIFlagArtificial | DIFlagObjectPointer)
!813 = !DIDerivedType(tag: DW_TAG_reference_type, baseType: !814, size: 64)
!814 = !DIDerivedType(tag: DW_TAG_const_type, baseType: !815)
!815 = !DIDerivedType(tag: DW_TAG_typedef, name: "string", scope: !12, file: !816, line: 243, baseType: !817)
!816 = !DIFile(filename: "SVF/llvm-13.0.0.obj/bin/../include/c++/v1/iosfwd", directory: "/Users/ichang-yul/Desktop")
!817 = !DICompositeType(tag: DW_TAG_class_type, name: "basic_string<char, std::__1::char_traits<char>, std::__1::allocator<char> >", scope: !12, file: !816, line: 242, flags: DIFlagFwdDecl | DIFlagNonTrivial, identifier: "_ZTSNSt3__112basic_stringIcNS_11char_traitsIcEENS_9allocatorIcEEEE")
!818 = !DISubprogram(name: "logic_error", scope: !754, file: !751, line: 84, type: !819, scopeLine: 84, flags: DIFlagPublic | DIFlagExplicit | DIFlagPrototyped, spFlags: 0)
!819 = !DISubroutineType(types: !820)
!820 = !{null, !812, !778}
!821 = !DISubprogram(name: "logic_error", scope: !754, file: !751, line: 86, type: !822, scopeLine: 86, flags: DIFlagPublic | DIFlagPrototyped, spFlags: 0)
!822 = !DISubroutineType(types: !823)
!823 = !{null, !812, !824}
!824 = !DIDerivedType(tag: DW_TAG_reference_type, baseType: !825, size: 64)
!825 = !DIDerivedType(tag: DW_TAG_const_type, baseType: !754)
!826 = !DISubprogram(name: "operator=", linkageName: "_ZNSt11logic_erroraSERKS_", scope: !754, file: !751, line: 87, type: !827, scopeLine: 87, flags: DIFlagPublic | DIFlagPrototyped, spFlags: 0)
!827 = !DISubroutineType(types: !828)
!828 = !{!829, !812, !824}
!829 = !DIDerivedType(tag: DW_TAG_reference_type, baseType: !754, size: 64)
!830 = !DISubprogram(name: "~logic_error", scope: !754, file: !751, line: 89, type: !831, scopeLine: 89, containingType: !754, virtualIndex: 0, flags: DIFlagPublic | DIFlagPrototyped, spFlags: DISPFlagVirtual)
!831 = !DISubroutineType(types: !832)
!832 = !{null, !812}
!833 = !DISubprogram(name: "what", linkageName: "_ZNKSt11logic_error4whatEv", scope: !754, file: !751, line: 91, type: !834, scopeLine: 91, containingType: !754, virtualIndex: 2, flags: DIFlagPublic | DIFlagPrototyped, spFlags: DISPFlagVirtual)
!834 = !DISubroutineType(types: !835)
!835 = !{!778, !836}
!836 = !DIDerivedType(tag: DW_TAG_pointer_type, baseType: !825, size: 64, flags: DIFlagArtificial | DIFlagObjectPointer)
!837 = !DISubprogram(name: "length_error", scope: !750, file: !751, line: 152, type: !838, scopeLine: 152, flags: DIFlagPublic | DIFlagExplicit | DIFlagPrototyped, spFlags: 0)
!838 = !DISubroutineType(types: !839)
!839 = !{null, !840, !813}
!840 = !DIDerivedType(tag: DW_TAG_pointer_type, baseType: !750, size: 64, flags: DIFlagArtificial | DIFlagObjectPointer)
!841 = !DISubprogram(name: "length_error", scope: !750, file: !751, line: 153, type: !842, scopeLine: 153, flags: DIFlagPublic | DIFlagExplicit | DIFlagPrototyped, spFlags: 0)
!842 = !DISubroutineType(types: !843)
!843 = !{null, !840, !778}
!844 = !DISubprogram(name: "length_error", scope: !750, file: !751, line: 155, type: !845, scopeLine: 155, flags: DIFlagPublic | DIFlagPrototyped, spFlags: 0)
!845 = !DISubroutineType(types: !846)
!846 = !{null, !840, !847}
!847 = !DIDerivedType(tag: DW_TAG_reference_type, baseType: !848, size: 64)
!848 = !DIDerivedType(tag: DW_TAG_const_type, baseType: !750)
!849 = !DISubprogram(name: "~length_error", scope: !750, file: !751, line: 156, type: !850, scopeLine: 156, containingType: !750, virtualIndex: 0, flags: DIFlagPublic | DIFlagPrototyped, spFlags: DISPFlagVirtual)
!850 = !DISubroutineType(types: !851)
!851 = !{null, !840}
!852 = distinct !DICompositeType(tag: DW_TAG_class_type, name: "__libcpp_numeric_limits<long, true>", scope: !12, file: !11, line: 200, size: 8, flags: DIFlagTypePassByValue, elements: !853, templateParams: !895, identifier: "_ZTSNSt3__123__libcpp_numeric_limitsIlLb1EEE")
!853 = !{!854, !855, !856, !857, !858, !859, !863, !864, !865, !866, !867, !868, !869, !870, !871, !872, !873, !874, !876, !877, !878, !879, !880, !881, !882, !884, !887, !888, !889, !890, !891, !892, !893, !894}
!854 = !DIDerivedType(tag: DW_TAG_member, name: "is_specialized", scope: !852, file: !11, line: 205, baseType: !279, flags: DIFlagProtected | DIFlagStaticMember, extraData: i1 true)
!855 = !DIDerivedType(tag: DW_TAG_member, name: "is_signed", scope: !852, file: !11, line: 207, baseType: !279, flags: DIFlagProtected | DIFlagStaticMember, extraData: i1 true)
